

Microchip MPLAB XC8 Assembler V2.20 build 20200408173844 
                                                                                               Sat Feb 06 23:13:23 2021

Microchip MPLAB XC8 C Compiler v2.20 (Free license) build 20200408173844 Og1 
     1                           	processor	16F887
     2                           	pagewidth 120
     3                           	opt	flic
     4                           	psect	strings,global,class=STRING,delta=2,noexec
     5                           	psect	cinit,global,class=CODE,merge=1,delta=2
     6                           	psect	bssCOMMON,global,class=COMMON,space=1,delta=1,noexec
     7                           	psect	bssBANK0,global,class=BANK0,space=1,delta=1,noexec
     8                           	psect	cstackCOMMON,global,class=COMMON,space=1,delta=1,noexec
     9                           	psect	cstackBANK0,global,class=BANK0,space=1,delta=1,noexec
    10                           	psect	maintext,global,class=CODE,split=1,delta=2
    11                           	psect	text1,local,class=CODE,merge=1,delta=2
    12                           	psect	text2,local,class=CODE,merge=1,delta=2
    13                           	psect	text3,local,class=CODE,merge=1,delta=2
    14                           	psect	text4,local,class=CODE,merge=1,delta=2
    15                           	psect	text5,local,class=CODE,merge=1,delta=2
    16                           	psect	text6,local,class=CODE,merge=1,delta=2
    17                           	psect	text7,local,class=CODE,merge=1,delta=2
    18                           	psect	text8,local,class=CODE,merge=1,delta=2
    19                           	psect	text9,local,class=CODE,merge=1,delta=2
    20                           	psect	text10,local,class=CODE,merge=1,delta=2
    21                           	psect	text11,local,class=CODE,merge=1,delta=2
    22                           	psect	text12,local,class=CODE,merge=1,delta=2
    23                           	psect	text13,local,class=CODE,merge=1,delta=2
    24                           	psect	intentry,global,class=CODE,delta=2
    25                           	psect	config,global,abs,ovrld,class=CONFIG,space=4,delta=2,noexec
    26                           	dabs	1,0x7E,2
    27  0000                     
    28                           ; Version 2.20
    29                           ; Generated 09/04/2020 GMT
    30                           ; 
    31                           ; Copyright © 2020, Microchip Technology Inc. and its subsidiaries ("Microchip")
    32                           ; All rights reserved.
    33                           ; 
    34                           ; This software is developed by Microchip Technology Inc. and its subsidiaries ("Microch
      +                          ip").
    35                           ; 
    36                           ; Redistribution and use in source and binary forms, with or without modification, are
    37                           ; permitted provided that the following conditions are met:
    38                           ; 
    39                           ;     1. Redistributions of source code must retain the above copyright notice, this lis
      +                          t of
    40                           ;        conditions and the following disclaimer.
    41                           ; 
    42                           ;     2. Redistributions in binary form must reproduce the above copyright notice, this 
      +                          list
    43                           ;        of conditions and the following disclaimer in the documentation and/or other
    44                           ;        materials provided with the distribution.
    45                           ; 
    46                           ;     3. Microchip's name may not be used to endorse or promote products derived from th
      +                          is
    47                           ;        software without specific prior written permission.
    48                           ; 
    49                           ; THIS SOFTWARE IS PROVIDED BY MICROCHIP "AS IS" AND ANY EXPRESS OR IMPLIED WARRANTIES,
    50                           ; INCLUDING, BUT NOT LIMITED TO, THE IMPLIED WARRANTIES OF MERCHANTABILITY AND FITNESS F
      +                          OR
    51                           ; PURPOSE ARE DISCLAIMED.  IN NO EVENT SHALL MICROCHIP BE LIABLE FOR ANY DIRECT, INDIREC
      +                          T,
    52                           ; INCIDENTAL, SPECIAL, EXEMPLARY, OR CONSEQUENTIAL DAMAGES (INCLUDING BUT NOT LIMITED TO
    53                           ; PROCUREMENT OF SUBSTITUTE GOODS OR SERVICES; LOSS OF USE, DATA OR PROFITS; OR BUSINESS
    54                           ; INTERRUPTION) HOWSOEVER CAUSED AND ON ANY THEORY OF LIABILITY, WHETHER IN CONTRACT, ST
      +                          RICT
    55                           ; LIABILITY, OR TORT (INCLUDING NEGLIGENCE OR OTHERWISE) ARISING IN ANY WAY OUT OF THE U
      +                          SE OF
    56                           ; THIS SOFTWARE, EVEN IF ADVISED OF THE POSSIBILITY OF SUCH DAMAGE.
    57                           ; 
    58                           ; 
    59                           ; Code-generator required, PIC16F887 Definitions
    60                           ; 
    61                           ; SFR Addresses
    62  0000                     	;# 
    63  0001                     	;# 
    64  0002                     	;# 
    65  0003                     	;# 
    66  0004                     	;# 
    67  0005                     	;# 
    68  0006                     	;# 
    69  0007                     	;# 
    70  0008                     	;# 
    71  0009                     	;# 
    72  000A                     	;# 
    73  000B                     	;# 
    74  000C                     	;# 
    75  000D                     	;# 
    76  000E                     	;# 
    77  000E                     	;# 
    78  000F                     	;# 
    79  0010                     	;# 
    80  0011                     	;# 
    81  0012                     	;# 
    82  0013                     	;# 
    83  0014                     	;# 
    84  0015                     	;# 
    85  0015                     	;# 
    86  0016                     	;# 
    87  0017                     	;# 
    88  0018                     	;# 
    89  0019                     	;# 
    90  001A                     	;# 
    91  001B                     	;# 
    92  001B                     	;# 
    93  001C                     	;# 
    94  001D                     	;# 
    95  001E                     	;# 
    96  001F                     	;# 
    97  0081                     	;# 
    98  0085                     	;# 
    99  0086                     	;# 
   100  0087                     	;# 
   101  0088                     	;# 
   102  0089                     	;# 
   103  008C                     	;# 
   104  008D                     	;# 
   105  008E                     	;# 
   106  008F                     	;# 
   107  0090                     	;# 
   108  0091                     	;# 
   109  0092                     	;# 
   110  0093                     	;# 
   111  0093                     	;# 
   112  0093                     	;# 
   113  0094                     	;# 
   114  0095                     	;# 
   115  0096                     	;# 
   116  0097                     	;# 
   117  0098                     	;# 
   118  0099                     	;# 
   119  009A                     	;# 
   120  009B                     	;# 
   121  009C                     	;# 
   122  009D                     	;# 
   123  009E                     	;# 
   124  009F                     	;# 
   125  0105                     	;# 
   126  0107                     	;# 
   127  0108                     	;# 
   128  0109                     	;# 
   129  010C                     	;# 
   130  010C                     	;# 
   131  010D                     	;# 
   132  010E                     	;# 
   133  010F                     	;# 
   134  0185                     	;# 
   135  0187                     	;# 
   136  0188                     	;# 
   137  0189                     	;# 
   138  018C                     	;# 
   139  018D                     	;# 
   140  0000                     	;# 
   141  0001                     	;# 
   142  0002                     	;# 
   143  0003                     	;# 
   144  0004                     	;# 
   145  0005                     	;# 
   146  0006                     	;# 
   147  0007                     	;# 
   148  0008                     	;# 
   149  0009                     	;# 
   150  000A                     	;# 
   151  000B                     	;# 
   152  000C                     	;# 
   153  000D                     	;# 
   154  000E                     	;# 
   155  000E                     	;# 
   156  000F                     	;# 
   157  0010                     	;# 
   158  0011                     	;# 
   159  0012                     	;# 
   160  0013                     	;# 
   161  0014                     	;# 
   162  0015                     	;# 
   163  0015                     	;# 
   164  0016                     	;# 
   165  0017                     	;# 
   166  0018                     	;# 
   167  0019                     	;# 
   168  001A                     	;# 
   169  001B                     	;# 
   170  001B                     	;# 
   171  001C                     	;# 
   172  001D                     	;# 
   173  001E                     	;# 
   174  001F                     	;# 
   175  0081                     	;# 
   176  0085                     	;# 
   177  0086                     	;# 
   178  0087                     	;# 
   179  0088                     	;# 
   180  0089                     	;# 
   181  008C                     	;# 
   182  008D                     	;# 
   183  008E                     	;# 
   184  008F                     	;# 
   185  0090                     	;# 
   186  0091                     	;# 
   187  0092                     	;# 
   188  0093                     	;# 
   189  0093                     	;# 
   190  0093                     	;# 
   191  0094                     	;# 
   192  0095                     	;# 
   193  0096                     	;# 
   194  0097                     	;# 
   195  0098                     	;# 
   196  0099                     	;# 
   197  009A                     	;# 
   198  009B                     	;# 
   199  009C                     	;# 
   200  009D                     	;# 
   201  009E                     	;# 
   202  009F                     	;# 
   203  0105                     	;# 
   204  0107                     	;# 
   205  0108                     	;# 
   206  0109                     	;# 
   207  010C                     	;# 
   208  010C                     	;# 
   209  010D                     	;# 
   210  010E                     	;# 
   211  010F                     	;# 
   212  0185                     	;# 
   213  0187                     	;# 
   214  0188                     	;# 
   215  0189                     	;# 
   216  018C                     	;# 
   217  018D                     	;# 
   218  0000                     	;# 
   219  0001                     	;# 
   220  0002                     	;# 
   221  0003                     	;# 
   222  0004                     	;# 
   223  0005                     	;# 
   224  0006                     	;# 
   225  0007                     	;# 
   226  0008                     	;# 
   227  0009                     	;# 
   228  000A                     	;# 
   229  000B                     	;# 
   230  000C                     	;# 
   231  000D                     	;# 
   232  000E                     	;# 
   233  000E                     	;# 
   234  000F                     	;# 
   235  0010                     	;# 
   236  0011                     	;# 
   237  0012                     	;# 
   238  0013                     	;# 
   239  0014                     	;# 
   240  0015                     	;# 
   241  0015                     	;# 
   242  0016                     	;# 
   243  0017                     	;# 
   244  0018                     	;# 
   245  0019                     	;# 
   246  001A                     	;# 
   247  001B                     	;# 
   248  001B                     	;# 
   249  001C                     	;# 
   250  001D                     	;# 
   251  001E                     	;# 
   252  001F                     	;# 
   253  0081                     	;# 
   254  0085                     	;# 
   255  0086                     	;# 
   256  0087                     	;# 
   257  0088                     	;# 
   258  0089                     	;# 
   259  008C                     	;# 
   260  008D                     	;# 
   261  008E                     	;# 
   262  008F                     	;# 
   263  0090                     	;# 
   264  0091                     	;# 
   265  0092                     	;# 
   266  0093                     	;# 
   267  0093                     	;# 
   268  0093                     	;# 
   269  0094                     	;# 
   270  0095                     	;# 
   271  0096                     	;# 
   272  0097                     	;# 
   273  0098                     	;# 
   274  0099                     	;# 
   275  009A                     	;# 
   276  009B                     	;# 
   277  009C                     	;# 
   278  009D                     	;# 
   279  009E                     	;# 
   280  009F                     	;# 
   281  0105                     	;# 
   282  0107                     	;# 
   283  0108                     	;# 
   284  0109                     	;# 
   285  010C                     	;# 
   286  010C                     	;# 
   287  010D                     	;# 
   288  010E                     	;# 
   289  010F                     	;# 
   290  0185                     	;# 
   291  0187                     	;# 
   292  0188                     	;# 
   293  0189                     	;# 
   294  018C                     	;# 
   295  018D                     	;# 
   296  0000                     	;# 
   297  0001                     	;# 
   298  0002                     	;# 
   299  0003                     	;# 
   300  0004                     	;# 
   301  0005                     	;# 
   302  0006                     	;# 
   303  0007                     	;# 
   304  0008                     	;# 
   305  0009                     	;# 
   306  000A                     	;# 
   307  000B                     	;# 
   308  000C                     	;# 
   309  000D                     	;# 
   310  000E                     	;# 
   311  000E                     	;# 
   312  000F                     	;# 
   313  0010                     	;# 
   314  0011                     	;# 
   315  0012                     	;# 
   316  0013                     	;# 
   317  0014                     	;# 
   318  0015                     	;# 
   319  0015                     	;# 
   320  0016                     	;# 
   321  0017                     	;# 
   322  0018                     	;# 
   323  0019                     	;# 
   324  001A                     	;# 
   325  001B                     	;# 
   326  001B                     	;# 
   327  001C                     	;# 
   328  001D                     	;# 
   329  001E                     	;# 
   330  001F                     	;# 
   331  0081                     	;# 
   332  0085                     	;# 
   333  0086                     	;# 
   334  0087                     	;# 
   335  0088                     	;# 
   336  0089                     	;# 
   337  008C                     	;# 
   338  008D                     	;# 
   339  008E                     	;# 
   340  008F                     	;# 
   341  0090                     	;# 
   342  0091                     	;# 
   343  0092                     	;# 
   344  0093                     	;# 
   345  0093                     	;# 
   346  0093                     	;# 
   347  0094                     	;# 
   348  0095                     	;# 
   349  0096                     	;# 
   350  0097                     	;# 
   351  0098                     	;# 
   352  0099                     	;# 
   353  009A                     	;# 
   354  009B                     	;# 
   355  009C                     	;# 
   356  009D                     	;# 
   357  009E                     	;# 
   358  009F                     	;# 
   359  0105                     	;# 
   360  0107                     	;# 
   361  0108                     	;# 
   362  0109                     	;# 
   363  010C                     	;# 
   364  010C                     	;# 
   365  010D                     	;# 
   366  010E                     	;# 
   367  010F                     	;# 
   368  0185                     	;# 
   369  0187                     	;# 
   370  0188                     	;# 
   371  0189                     	;# 
   372  018C                     	;# 
   373  018D                     	;# 
   374  0000                     	;# 
   375  0001                     	;# 
   376  0002                     	;# 
   377  0003                     	;# 
   378  0004                     	;# 
   379  0005                     	;# 
   380  0006                     	;# 
   381  0007                     	;# 
   382  0008                     	;# 
   383  0009                     	;# 
   384  000A                     	;# 
   385  000B                     	;# 
   386  000C                     	;# 
   387  000D                     	;# 
   388  000E                     	;# 
   389  000E                     	;# 
   390  000F                     	;# 
   391  0010                     	;# 
   392  0011                     	;# 
   393  0012                     	;# 
   394  0013                     	;# 
   395  0014                     	;# 
   396  0015                     	;# 
   397  0015                     	;# 
   398  0016                     	;# 
   399  0017                     	;# 
   400  0018                     	;# 
   401  0019                     	;# 
   402  001A                     	;# 
   403  001B                     	;# 
   404  001B                     	;# 
   405  001C                     	;# 
   406  001D                     	;# 
   407  001E                     	;# 
   408  001F                     	;# 
   409  0081                     	;# 
   410  0085                     	;# 
   411  0086                     	;# 
   412  0087                     	;# 
   413  0088                     	;# 
   414  0089                     	;# 
   415  008C                     	;# 
   416  008D                     	;# 
   417  008E                     	;# 
   418  008F                     	;# 
   419  0090                     	;# 
   420  0091                     	;# 
   421  0092                     	;# 
   422  0093                     	;# 
   423  0093                     	;# 
   424  0093                     	;# 
   425  0094                     	;# 
   426  0095                     	;# 
   427  0096                     	;# 
   428  0097                     	;# 
   429  0098                     	;# 
   430  0099                     	;# 
   431  009A                     	;# 
   432  009B                     	;# 
   433  009C                     	;# 
   434  009D                     	;# 
   435  009E                     	;# 
   436  009F                     	;# 
   437  0105                     	;# 
   438  0107                     	;# 
   439  0108                     	;# 
   440  0109                     	;# 
   441  010C                     	;# 
   442  010C                     	;# 
   443  010D                     	;# 
   444  010E                     	;# 
   445  010F                     	;# 
   446  0185                     	;# 
   447  0187                     	;# 
   448  0188                     	;# 
   449  0189                     	;# 
   450  018C                     	;# 
   451  018D                     	;# 
   452  0000                     	;# 
   453  0001                     	;# 
   454  0002                     	;# 
   455  0003                     	;# 
   456  0004                     	;# 
   457  0005                     	;# 
   458  0006                     	;# 
   459  0007                     	;# 
   460  0008                     	;# 
   461  0009                     	;# 
   462  000A                     	;# 
   463  000B                     	;# 
   464  000C                     	;# 
   465  000D                     	;# 
   466  000E                     	;# 
   467  000E                     	;# 
   468  000F                     	;# 
   469  0010                     	;# 
   470  0011                     	;# 
   471  0012                     	;# 
   472  0013                     	;# 
   473  0014                     	;# 
   474  0015                     	;# 
   475  0015                     	;# 
   476  0016                     	;# 
   477  0017                     	;# 
   478  0018                     	;# 
   479  0019                     	;# 
   480  001A                     	;# 
   481  001B                     	;# 
   482  001B                     	;# 
   483  001C                     	;# 
   484  001D                     	;# 
   485  001E                     	;# 
   486  001F                     	;# 
   487  0081                     	;# 
   488  0085                     	;# 
   489  0086                     	;# 
   490  0087                     	;# 
   491  0088                     	;# 
   492  0089                     	;# 
   493  008C                     	;# 
   494  008D                     	;# 
   495  008E                     	;# 
   496  008F                     	;# 
   497  0090                     	;# 
   498  0091                     	;# 
   499  0092                     	;# 
   500  0093                     	;# 
   501  0093                     	;# 
   502  0093                     	;# 
   503  0094                     	;# 
   504  0095                     	;# 
   505  0096                     	;# 
   506  0097                     	;# 
   507  0098                     	;# 
   508  0099                     	;# 
   509  009A                     	;# 
   510  009B                     	;# 
   511  009C                     	;# 
   512  009D                     	;# 
   513  009E                     	;# 
   514  009F                     	;# 
   515  0105                     	;# 
   516  0107                     	;# 
   517  0108                     	;# 
   518  0109                     	;# 
   519  010C                     	;# 
   520  010C                     	;# 
   521  010D                     	;# 
   522  010E                     	;# 
   523  010F                     	;# 
   524  0185                     	;# 
   525  0187                     	;# 
   526  0188                     	;# 
   527  0189                     	;# 
   528  018C                     	;# 
   529  018D                     	;# 
   530  0018                     _RCSTAbits	set	24
   531  0006                     _PORTBbits	set	6
   532  001F                     _ADCON0bits	set	31
   533  0008                     _PORTD	set	8
   534  0007                     _PORTC	set	7
   535  0006                     _PORTB	set	6
   536  0005                     _PORTA	set	5
   537  0019                     _TXREG	set	25
   538  001A                     _RCREG	set	26
   539  0001                     _TMR0	set	1
   540  000B                     _INTCONbits	set	11
   541  001E                     _ADRESH	set	30
   542  000C                     _PIR1bits	set	12
   543  0099                     _SPBRG	set	153
   544  009A                     _SPBRGH	set	154
   545  0098                     _TXSTAbits	set	152
   546  008F                     _OSCCONbits	set	143
   547  009F                     _ADCON1	set	159
   548  0081                     _OPTION_REG	set	129
   549  0087                     _TRISC	set	135
   550  0086                     _TRISB	set	134
   551  0085                     _TRISA	set	133
   552  0088                     _TRISD	set	136
   553  008C                     _PIE1bits	set	140
   554  0187                     _BAUDCTLbits	set	391
   555  0189                     _ANSELH	set	393
   556  0188                     _ANSELbits	set	392
   557  0188                     _ANSEL	set	392
   558                           
   559                           	psect	strings
   560  027D                     __pstrings:
   561  027D                     stringtab:
   562  027D                     __stringtab:
   563  027D                     stringcode:	
   564                           ;	String table - string pointers are 1 byte each
   565                           
   566  027D                     stringdir:
   567  027D  3002               	movlw	high stringdir
   568  027E  008A               	movwf	10
   569  027F  0804               	movf	4,w
   570  0280  0A84               	incf	4,f
   571  0281  0782               	addwf	2,f
   572  0282                     __stringbase:
   573  0282  3400               	retlw	0
   574  0283                     __end_of__stringtab:
   575  0283                     STR_1:
   576  0283  3453               	retlw	83	;'S'
   577  0284  3431               	retlw	49	;'1'
   578  0285  3420               	retlw	32	;' '
   579  0286  3420               	retlw	32	;' '
   580  0287  3420               	retlw	32	;' '
   581  0288  3420               	retlw	32	;' '
   582  0289  3453               	retlw	83	;'S'
   583  028A  3432               	retlw	50	;'2'
   584  028B  3420               	retlw	32	;' '
   585  028C  3420               	retlw	32	;' '
   586  028D  3420               	retlw	32	;' '
   587  028E  3420               	retlw	32	;' '
   588  028F  3453               	retlw	83	;'S'
   589  0290  3433               	retlw	51	;'3'
   590  0291  3400               	retlw	0
   591  0292                     STR_2:
   592  0292  3456               	retlw	86	;'V'
   593  0293  346F               	retlw	111	;'o'
   594  0294  346C               	retlw	108	;'l'
   595  0295  3474               	retlw	116	;'t'
   596  0296  3461               	retlw	97	;'a'
   597  0297  346A               	retlw	106	;'j'
   598  0298  3465               	retlw	101	;'e'
   599  0299  3473               	retlw	115	;'s'
   600  029A  343A               	retlw	58	;':'
   601  029B  3400               	retlw	0
   602                           
   603                           	psect	cinit
   604  0013                     start_initialization:	
   605                           ; #config settings
   606                           
   607  0013                     __initialization:
   608                           
   609                           ; Clear objects allocated to COMMON
   610  0013  01F8               	clrf	__pbssCOMMON& (0+127)
   611  0014  01F9               	clrf	(__pbssCOMMON+1)& (0+127)
   612  0015  01FA               	clrf	(__pbssCOMMON+2)& (0+127)
   613                           
   614                           ; Clear objects allocated to BANK0
   615  0016  1283               	bcf	3,5	;RP0=0, select bank0
   616  0017  1303               	bcf	3,6	;RP1=0, select bank0
   617  0018  01A0               	clrf	__pbssBANK0& (0+127)
   618  0019  01A1               	clrf	(__pbssBANK0+1)& (0+127)
   619  001A  01A2               	clrf	(__pbssBANK0+2)& (0+127)
   620  001B  01A3               	clrf	(__pbssBANK0+3)& (0+127)
   621  001C  01A4               	clrf	(__pbssBANK0+4)& (0+127)
   622  001D  01A5               	clrf	(__pbssBANK0+5)& (0+127)
   623  001E  01A6               	clrf	(__pbssBANK0+6)& (0+127)
   624  001F  01A7               	clrf	(__pbssBANK0+7)& (0+127)
   625  0020  01A8               	clrf	(__pbssBANK0+8)& (0+127)
   626  0021                     end_of_initialization:	
   627                           ;End of C runtime variable initialization code
   628                           
   629  0021                     __end_of__initialization:
   630  0021  0183               	clrf	3
   631  0022  120A  118A  28CB   	ljmp	_main	;jump to C main() function
   632                           
   633                           	psect	bssCOMMON
   634  0078                     __pbssCOMMON:
   635  0078                     _terminal:
   636  0078                     	ds	1
   637  0079                     _lec_ADC:
   638  0079                     	ds	1
   639  007A                     _go_adc:
   640  007A                     	ds	1
   641                           
   642                           	psect	bssBANK0
   643  0020                     __pbssBANK0:
   644  0020                     _CONT:
   645  0020                     	ds	1
   646  0021                     _estado1:
   647  0021                     	ds	1
   648  0022                     _flag_T2:
   649  0022                     	ds	1
   650  0023                     _flag_T:
   651  0023                     	ds	1
   652  0024                     _pot2:
   653  0024                     	ds	1
   654  0025                     _pot1:
   655  0025                     	ds	1
   656  0026                     _valor_e:
   657  0026                     	ds	1
   658  0027                     _valor_r:
   659  0027                     	ds	1
   660  0028                     _toggle:
   661  0028                     	ds	1
   662                           
   663                           	psect	cstackCOMMON
   664  0070                     __pcstackCOMMON:
   665  0070                     ?_initOsc:
   666  0070                     ?_Setup:	
   667                           ; 1 bytes @ 0x0
   668                           
   669  0070                     ?_USARTconf:	
   670                           ; 1 bytes @ 0x0
   671                           
   672  0070                     ?_Lcd_Init:	
   673                           ; 1 bytes @ 0x0
   674                           
   675  0070                     ?_Lcd_Cmd:	
   676                           ; 1 bytes @ 0x0
   677                           
   678  0070                     ?_Lcd_Write_String:	
   679                           ; 1 bytes @ 0x0
   680                           
   681  0070                     ?_ADC_LEER:	
   682                           ; 1 bytes @ 0x0
   683                           
   684  0070                     ?_debounce_T:	
   685                           ; 1 bytes @ 0x0
   686                           
   687  0070                     ?_ISR:	
   688                           ; 1 bytes @ 0x0
   689                           
   690  0070                     ??_ISR:	
   691                           ; 1 bytes @ 0x0
   692                           
   693  0070                     ?_main:	
   694                           ; 1 bytes @ 0x0
   695                           
   696  0070                     ?_Lcd_Port:	
   697                           ; 1 bytes @ 0x0
   698                           
   699  0070                     ?_Lcd_Write_Char:	
   700                           ; 1 bytes @ 0x0
   701                           
   702                           
   703                           ; 1 bytes @ 0x0
   704  0070                     	ds	3
   705  0073                     ??_initOsc:
   706  0073                     ??_Setup:	
   707                           ; 1 bytes @ 0x3
   708                           
   709  0073                     ??_USARTconf:	
   710                           ; 1 bytes @ 0x3
   711                           
   712  0073                     ?_ADCinit:	
   713                           ; 1 bytes @ 0x3
   714                           
   715  0073                     ??_debounce_T:	
   716                           ; 1 bytes @ 0x3
   717                           
   718  0073                     ??_Lcd_Port:	
   719                           ; 1 bytes @ 0x3
   720                           
   721  0073                     ADCinit@chan:	
   722                           ; 1 bytes @ 0x3
   723                           
   724  0073                     Lcd_Port@a:	
   725                           ; 1 bytes @ 0x3
   726                           
   727                           
   728                           ; 1 bytes @ 0x3
   729  0073                     	ds	1
   730  0074                     ??_Lcd_Cmd:
   731  0074                     ??_ADCinit:	
   732                           ; 1 bytes @ 0x4
   733                           
   734  0074                     ??_Lcd_Write_Char:	
   735                           ; 1 bytes @ 0x4
   736                           
   737                           
   738                           ; 1 bytes @ 0x4
   739  0074                     	ds	1
   740  0075                     Lcd_Write_Char@a:
   741  0075                     initOsc@frec:	
   742                           ; 1 bytes @ 0x5
   743                           
   744                           
   745                           ; 1 bytes @ 0x5
   746  0075                     	ds	1
   747  0076                     ??_Lcd_Write_String:
   748  0076                     ADCinit@vel:	
   749                           ; 1 bytes @ 0x6
   750                           
   751  0076                     Lcd_Cmd@a:	
   752                           ; 1 bytes @ 0x6
   753                           
   754                           
   755                           ; 1 bytes @ 0x6
   756  0076                     	ds	1
   757  0077                     ??_Lcd_Init:
   758  0077                     ?_Lcd_Set_Cursor:	
   759                           ; 1 bytes @ 0x7
   760                           
   761  0077                     ??_ADC_LEER:	
   762                           ; 1 bytes @ 0x7
   763                           
   764  0077                     Lcd_Set_Cursor@b:	
   765                           ; 1 bytes @ 0x7
   766                           
   767                           
   768                           ; 1 bytes @ 0x7
   769  0077                     	ds	1
   770  0078                     ??_Lcd_Set_Cursor:
   771  0078                     ??_main:	
   772                           ; 1 bytes @ 0x8
   773                           
   774                           
   775                           	psect	cstackBANK0
   776  0029                     __pcstackBANK0:	
   777                           ; 1 bytes @ 0x8
   778                           
   779  0029                     Lcd_Set_Cursor@a:
   780  0029                     Lcd_Write_String@i:	
   781                           ; 1 bytes @ 0x0
   782                           
   783                           
   784                           ; 2 bytes @ 0x0
   785  0029                     	ds	1
   786  002A                     Lcd_Set_Cursor@temp:
   787                           
   788                           ; 1 bytes @ 0x1
   789  002A                     	ds	1
   790  002B                     Lcd_Set_Cursor@z:
   791  002B                     Lcd_Write_String@a:	
   792                           ; 1 bytes @ 0x2
   793                           
   794                           
   795                           ; 1 bytes @ 0x2
   796  002B                     	ds	1
   797                           
   798                           	psect	maintext
   799  00CB                     __pmaintext:	
   800 ;;
   801 ;;Main: autosize = 0, tempsize = 0, incstack = 0, save=0
   802 ;;
   803 ;; *************** function _main *****************
   804 ;; Defined at:
   805 ;;		line 88 in file "C:/Users/Carlo/OneDrive/Documentos/Quinto Semestre/Digital2/Lab3.X/main.c"
   806 ;; Parameters:    Size  Location     Type
   807 ;;		None
   808 ;; Auto vars:     Size  Location     Type
   809 ;;		None
   810 ;; Return value:  Size  Location     Type
   811 ;;                  1    wreg      void 
   812 ;; Registers used:
   813 ;;		wreg, fsr0l, fsr0h, status,2, status,0, btemp+1, pclath, cstack
   814 ;; Tracked objects:
   815 ;;		On entry : B00/0
   816 ;;		On exit  : 0/0
   817 ;;		Unchanged: 0/0
   818 ;; Data sizes:     COMMON   BANK0   BANK1   BANK3   BANK2
   819 ;;      Params:         0       0       0       0       0
   820 ;;      Locals:         0       0       0       0       0
   821 ;;      Temps:          0       0       0       0       0
   822 ;;      Totals:         0       0       0       0       0
   823 ;;Total ram usage:        0 bytes
   824 ;; Hardware stack levels required when called:    4
   825 ;; This function calls:
   826 ;;		_ADC_LEER
   827 ;;		_ADCinit
   828 ;;		_Lcd_Cmd
   829 ;;		_Lcd_Init
   830 ;;		_Lcd_Set_Cursor
   831 ;;		_Lcd_Write_String
   832 ;;		_Setup
   833 ;;		_USARTconf
   834 ;;		_debounce_T
   835 ;;		_initOsc
   836 ;; This function is called by:
   837 ;;		Startup code after reset
   838 ;; This function uses a non-reentrant model
   839 ;;
   840                           
   841                           
   842                           ;psect for function _main
   843  00CB                     _main:
   844  00CB                     l1411:	
   845                           ;incstack = 0
   846                           ; Regs used in _main: [wreg-fsr0h+status,2+status,0+btemp+1+pclath+cstack]
   847                           
   848                           
   849                           ;C:/Users/Carlo/OneDrive/Documentos/Quinto Semestre/Digital2/Lab3.X/main.c: 89:     PIR1
      +                          bits.ADIF = 0;
   850  00CB  1683               	bsf	3,5	;RP0=1, select bank1
   851  00CC  1303               	bcf	3,6	;RP1=0, select bank1
   852  00CD  0188               	clrf	8	;volatile
   853  00CE                     l1413:
   854                           
   855                           ;C:/Users/Carlo/OneDrive/Documentos/Quinto Semestre/Digital2/Lab3.X/main.c: 90:     INTC
      +                          ONbits.RBIF = 0;
   856  00CE  3014               	movlw	20
   857  00CF  120A  118A  219E  120A  118A  	fcall	_initOsc
   858  00D4                     l1415:
   859                           
   860                           ;C:/Users/Carlo/OneDrive/Documentos/Quinto Semestre/Digital2/Lab3.X/main.c: 91: 
   861  00D4  120A  118A  222A  120A  118A  	fcall	_Setup
   862  00D9                     l1417:
   863                           
   864                           ;C:/Users/Carlo/OneDrive/Documentos/Quinto Semestre/Digital2/Lab3.X/main.c: 92: 
   865  00D9  120A  118A  22CD  120A  118A  	fcall	_USARTconf
   866  00DE                     l1419:
   867                           
   868                           ;C:/Users/Carlo/OneDrive/Documentos/Quinto Semestre/Digital2/Lab3.X/main.c: 93:     OPTI
      +                          ON_REG = 0b11010111;
   869  00DE  120A  118A  229C  120A  118A  	fcall	_Lcd_Init
   870  00E3                     l1421:
   871                           
   872                           ;C:/Users/Carlo/OneDrive/Documentos/Quinto Semestre/Digital2/Lab3.X/main.c: 94: 
   873  00E3  308A               	movlw	138
   874  00E4  120A  118A  22B5  120A  118A  	fcall	_Lcd_Cmd
   875  00E9                     l1423:
   876                           
   877                           ;C:/Users/Carlo/OneDrive/Documentos/Quinto Semestre/Digital2/Lab3.X/main.c: 95: 
   878  00E9  3014               	movlw	20
   879  00EA  00FF               	movwf	btemp+1
   880  00EB  087F               	movf	btemp+1,w
   881  00EC  00F3               	movwf	ADCinit@chan
   882  00ED  300B               	movlw	11
   883  00EE  120A  118A  2025  120A  118A  	fcall	_ADCinit
   884  00F3                     l1425:
   885                           
   886                           ;C:/Users/Carlo/OneDrive/Documentos/Quinto Semestre/Digital2/Lab3.X/main.c: 98: 
   887  00F3  01F7               	clrf	Lcd_Set_Cursor@b
   888  00F4  0AF7               	incf	Lcd_Set_Cursor@b,f
   889  00F5  3001               	movlw	1
   890  00F6  120A  118A  21FC  120A  118A  	fcall	_Lcd_Set_Cursor
   891  00FB                     l1427:
   892                           
   893                           ;C:/Users/Carlo/OneDrive/Documentos/Quinto Semestre/Digital2/Lab3.X/main.c: 99:     INTC
      +                          ONbits.RBIE = 0;
   894  00FB  3001               	movlw	(low ((STR_1-__stringbase)| (0+32768)))& (0+255)
   895  00FC  120A  118A  2254  120A  118A  	fcall	_Lcd_Write_String
   896  0101                     l1429:
   897                           
   898                           ;C:/Users/Carlo/OneDrive/Documentos/Quinto Semestre/Digital2/Lab3.X/main.c: 100:     PIE
      +                          1bits.ADIE = 1;
   899  0101  01F7               	clrf	Lcd_Set_Cursor@b
   900  0102  0AF7               	incf	Lcd_Set_Cursor@b,f
   901  0103  3002               	movlw	2
   902  0104  120A  118A  21FC  120A  118A  	fcall	_Lcd_Set_Cursor
   903  0109                     l1431:
   904                           
   905                           ;C:/Users/Carlo/OneDrive/Documentos/Quinto Semestre/Digital2/Lab3.X/main.c: 101:     INT
      +                          CONbits.T0IE = 1;
   906  0109  3010               	movlw	(low ((STR_2-__stringbase)| (0+32768)))& (0+255)
   907  010A  120A  118A  2254  120A  118A  	fcall	_Lcd_Write_String
   908  010F                     l1433:
   909                           
   910                           ;C:/Users/Carlo/OneDrive/Documentos/Quinto Semestre/Digital2/Lab3.X/main.c: 102:     TMR
      +                          0 = 236;
   911  010F  120A  118A  216A  120A  118A  	fcall	_ADC_LEER
   912  0114                     l1435:
   913                           
   914                           ;C:/Users/Carlo/OneDrive/Documentos/Quinto Semestre/Digital2/Lab3.X/main.c: 103: 
   915  0114  302B               	movlw	43
   916  0115  0678               	xorwf	_terminal,w
   917  0116  1903               	btfsc	3,2
   918  0117  2919               	goto	u361
   919  0118  291A               	goto	u360
   920  0119                     u361:
   921  0119  292A               	goto	l1443
   922  011A                     u360:
   923  011A                     l1437:
   924  011A  300D               	movlw	13
   925  011B  0678               	xorwf	_terminal,w
   926  011C  1903               	btfsc	3,2
   927  011D  291F               	goto	u371
   928  011E  2920               	goto	u370
   929  011F                     u371:
   930  011F  292A               	goto	l1443
   931  0120                     u370:
   932  0120                     l1439:
   933  0120  302D               	movlw	45
   934  0121  0678               	xorwf	_terminal,w
   935  0122  1903               	btfsc	3,2
   936  0123  2925               	goto	u381
   937  0124  2926               	goto	u380
   938  0125                     u381:
   939  0125  292A               	goto	l1443
   940  0126                     u380:
   941  0126                     l1441:
   942                           
   943                           ;C:/Users/Carlo/OneDrive/Documentos/Quinto Semestre/Digital2/Lab3.X/main.c: 104:     PIE
      +                          1bits.RCIE = 1;
   944  0126  1283               	bcf	3,5	;RP0=0, select bank0
   945  0127  1303               	bcf	3,6	;RP1=0, select bank0
   946  0128  01A3               	clrf	_flag_T
   947                           
   948                           ;C:/Users/Carlo/OneDrive/Documentos/Quinto Semestre/Digital2/Lab3.X/main.c: 105:     PIE
      +                          1bits.TXIE = 1;
   949  0129  01A2               	clrf	_flag_T2
   950  012A                     l1443:
   951                           
   952                           ;C:/Users/Carlo/OneDrive/Documentos/Quinto Semestre/Digital2/Lab3.X/main.c: 107: }
   953  012A  120A  118A  2133  120A  118A  	fcall	_debounce_T
   954  012F  28F3               	goto	l1425
   955  0130  120A  118A  2810   	ljmp	start
   956  0133                     __end_of_main:
   957                           
   958                           	psect	text1
   959  019E                     __ptext1:	
   960 ;; *************** function _initOsc *****************
   961 ;; Defined at:
   962 ;;		line 7 in file "C:/Users/Carlo/OneDrive/Documentos/Quinto Semestre/Digital2/Lab3.X/Osc.c"
   963 ;; Parameters:    Size  Location     Type
   964 ;;  frec            1    wreg     unsigned char 
   965 ;; Auto vars:     Size  Location     Type
   966 ;;  frec            1    5[COMMON] unsigned char 
   967 ;; Return value:  Size  Location     Type
   968 ;;                  1    wreg      void 
   969 ;; Registers used:
   970 ;;		wreg, fsr0l, fsr0h, status,2, status,0
   971 ;; Tracked objects:
   972 ;;		On entry : 0/0
   973 ;;		On exit  : 0/0
   974 ;;		Unchanged: 0/0
   975 ;; Data sizes:     COMMON   BANK0   BANK1   BANK3   BANK2
   976 ;;      Params:         0       0       0       0       0
   977 ;;      Locals:         1       0       0       0       0
   978 ;;      Temps:          2       0       0       0       0
   979 ;;      Totals:         3       0       0       0       0
   980 ;;Total ram usage:        3 bytes
   981 ;; Hardware stack levels used:    1
   982 ;; Hardware stack levels required when called:    1
   983 ;; This function calls:
   984 ;;		Nothing
   985 ;; This function is called by:
   986 ;;		_main
   987 ;; This function uses a non-reentrant model
   988 ;;
   989                           
   990                           
   991                           ;psect for function _initOsc
   992  019E                     _initOsc:
   993                           
   994                           ;incstack = 0
   995                           ; Regs used in _initOsc: [wreg-fsr0h+status,2+status,0]
   996                           ;initOsc@frec stored from wreg
   997  019E  00F5               	movwf	initOsc@frec
   998  019F                     l1139:
   999                           
  1000                           ;C:/Users/Carlo/OneDrive/Documentos/Quinto Semestre/Digital2/Lab3.X/Osc.c: 8:     switch
      +                          (frec){
  1001  019F  29B8               	goto	l1143
  1002  01A0                     l195:	
  1003                           ;C:/Users/Carlo/OneDrive/Documentos/Quinto Semestre/Digital2/Lab3.X/Osc.c: 9:         ca
      +                          se 0:
  1004                           
  1005                           
  1006                           ;C:/Users/Carlo/OneDrive/Documentos/Quinto Semestre/Digital2/Lab3.X/Osc.c: 10:          
      +                             OSCCONbits.IRCF0 = 0;
  1007  01A0  1683               	bsf	3,5	;RP0=1, select bank1
  1008  01A1  1303               	bcf	3,6	;RP1=0, select bank1
  1009  01A2  120F               	bcf	15,4	;volatile
  1010                           
  1011                           ;C:/Users/Carlo/OneDrive/Documentos/Quinto Semestre/Digital2/Lab3.X/Osc.c: 11:          
      +                             OSCCONbits.IRCF1 = 0;
  1012  01A3  128F               	bcf	15,5	;volatile
  1013                           
  1014                           ;C:/Users/Carlo/OneDrive/Documentos/Quinto Semestre/Digital2/Lab3.X/Osc.c: 12:          
      +                             OSCCONbits.IRCF2 = 0;
  1015  01A4  130F               	bcf	15,6	;volatile
  1016                           
  1017                           ;C:/Users/Carlo/OneDrive/Documentos/Quinto Semestre/Digital2/Lab3.X/Osc.c: 13:          
      +                             break;
  1018  01A5  29CB               	goto	l196
  1019  01A6                     l197:	
  1020                           ;C:/Users/Carlo/OneDrive/Documentos/Quinto Semestre/Digital2/Lab3.X/Osc.c: 14:         c
      +                          ase 1:
  1021                           
  1022                           
  1023                           ;C:/Users/Carlo/OneDrive/Documentos/Quinto Semestre/Digital2/Lab3.X/Osc.c: 15:          
      +                             OSCCONbits.IRCF0 = 1;
  1024  01A6  1683               	bsf	3,5	;RP0=1, select bank1
  1025  01A7  1303               	bcf	3,6	;RP1=0, select bank1
  1026  01A8  160F               	bsf	15,4	;volatile
  1027                           
  1028                           ;C:/Users/Carlo/OneDrive/Documentos/Quinto Semestre/Digital2/Lab3.X/Osc.c: 16:          
      +                             OSCCONbits.IRCF1 = 0;
  1029  01A9  128F               	bcf	15,5	;volatile
  1030                           
  1031                           ;C:/Users/Carlo/OneDrive/Documentos/Quinto Semestre/Digital2/Lab3.X/Osc.c: 17:          
      +                             OSCCONbits.IRCF2 = 0;
  1032  01AA  130F               	bcf	15,6	;volatile
  1033                           
  1034                           ;C:/Users/Carlo/OneDrive/Documentos/Quinto Semestre/Digital2/Lab3.X/Osc.c: 18:          
      +                             break;
  1035  01AB  29CB               	goto	l196
  1036  01AC                     l198:	
  1037                           ;C:/Users/Carlo/OneDrive/Documentos/Quinto Semestre/Digital2/Lab3.X/Osc.c: 26:         c
      +                          ase 7:
  1038                           
  1039                           
  1040                           ;C:/Users/Carlo/OneDrive/Documentos/Quinto Semestre/Digital2/Lab3.X/Osc.c: 27:          
      +                             OSCCONbits.IRCF0 = 1;
  1041  01AC  1683               	bsf	3,5	;RP0=1, select bank1
  1042  01AD  1303               	bcf	3,6	;RP1=0, select bank1
  1043  01AE  160F               	bsf	15,4	;volatile
  1044                           
  1045                           ;C:/Users/Carlo/OneDrive/Documentos/Quinto Semestre/Digital2/Lab3.X/Osc.c: 28:          
      +                             OSCCONbits.IRCF1 = 1;
  1046  01AF  168F               	bsf	15,5	;volatile
  1047                           
  1048                           ;C:/Users/Carlo/OneDrive/Documentos/Quinto Semestre/Digital2/Lab3.X/Osc.c: 29:          
      +                             OSCCONbits.IRCF2 = 1;
  1049  01B0  170F               	bsf	15,6	;volatile
  1050                           
  1051                           ;C:/Users/Carlo/OneDrive/Documentos/Quinto Semestre/Digital2/Lab3.X/Osc.c: 30:          
      +                             break;
  1052  01B1  29CB               	goto	l196
  1053  01B2                     l199:	
  1054                           ;C:/Users/Carlo/OneDrive/Documentos/Quinto Semestre/Digital2/Lab3.X/Osc.c: 31:         d
      +                          efault:
  1055                           
  1056                           
  1057                           ;C:/Users/Carlo/OneDrive/Documentos/Quinto Semestre/Digital2/Lab3.X/Osc.c: 32:          
      +                             OSCCONbits.IRCF0 = 0;
  1058  01B2  1683               	bsf	3,5	;RP0=1, select bank1
  1059  01B3  1303               	bcf	3,6	;RP1=0, select bank1
  1060  01B4  120F               	bcf	15,4	;volatile
  1061                           
  1062                           ;C:/Users/Carlo/OneDrive/Documentos/Quinto Semestre/Digital2/Lab3.X/Osc.c: 33:          
      +                             OSCCONbits.IRCF1 = 1;
  1063  01B5  168F               	bsf	15,5	;volatile
  1064                           
  1065                           ;C:/Users/Carlo/OneDrive/Documentos/Quinto Semestre/Digital2/Lab3.X/Osc.c: 34:          
      +                             OSCCONbits.IRCF2 = 1;
  1066  01B6  170F               	bsf	15,6	;volatile
  1067                           
  1068                           ;C:/Users/Carlo/OneDrive/Documentos/Quinto Semestre/Digital2/Lab3.X/Osc.c: 35:          
      +                             break;
  1069  01B7  29CB               	goto	l196
  1070  01B8                     l1143:
  1071  01B8  0875               	movf	initOsc@frec,w
  1072  01B9  00F3               	movwf	??_initOsc
  1073  01BA  01F4               	clrf	??_initOsc+1
  1074                           
  1075                           ; Switch on 2 bytes has been partitioned into a top level switch of size 1, and 1 sub-sw
      +                          itches
  1076                           ; Switch size 1, requested type "simple"
  1077                           ; Number of cases is 1, Range of values is 0 to 0
  1078                           ; switch strategies available:
  1079                           ; Name         Instructions Cycles
  1080                           ; simple_byte            4     3 (average)
  1081                           ; direct_byte           11     8 (fixed)
  1082                           ; jumptable            260     6 (fixed)
  1083                           ;	Chosen strategy is simple_byte
  1084  01BB  0874               	movf	??_initOsc+1,w
  1085  01BC  3A00               	xorlw	0	; case 0
  1086  01BD  1903               	skipnz
  1087  01BE  29C0               	goto	l1511
  1088  01BF  29B2               	goto	l199
  1089  01C0                     l1511:
  1090                           
  1091                           ; Switch size 1, requested type "simple"
  1092                           ; Number of cases is 3, Range of values is 0 to 7
  1093                           ; switch strategies available:
  1094                           ; Name         Instructions Cycles
  1095                           ; simple_byte           10     6 (average)
  1096                           ; direct_byte           32     8 (fixed)
  1097                           ; jumptable            260     6 (fixed)
  1098                           ;	Chosen strategy is simple_byte
  1099  01C0  0873               	movf	??_initOsc,w
  1100  01C1  3A00               	xorlw	0	; case 0
  1101  01C2  1903               	skipnz
  1102  01C3  29A0               	goto	l195
  1103  01C4  3A01               	xorlw	1	; case 1
  1104  01C5  1903               	skipnz
  1105  01C6  29A6               	goto	l197
  1106  01C7  3A06               	xorlw	6	; case 7
  1107  01C8  1903               	skipnz
  1108  01C9  29AC               	goto	l198
  1109  01CA  29B2               	goto	l199
  1110  01CB                     l196:
  1111                           
  1112                           ;C:/Users/Carlo/OneDrive/Documentos/Quinto Semestre/Digital2/Lab3.X/Osc.c: 38:     OSCCO
      +                          Nbits.SCS = 1;
  1113  01CB  140F               	bsf	15,0	;volatile
  1114  01CC                     l200:
  1115  01CC  0008               	return
  1116  01CD                     __end_of_initOsc:
  1117                           
  1118                           	psect	text2
  1119  0133                     __ptext2:	
  1120 ;; *************** function _debounce_T *****************
  1121 ;; Defined at:
  1122 ;;		line 169 in file "C:/Users/Carlo/OneDrive/Documentos/Quinto Semestre/Digital2/Lab3.X/main.c"
  1123 ;; Parameters:    Size  Location     Type
  1124 ;;		None
  1125 ;; Auto vars:     Size  Location     Type
  1126 ;;		None
  1127 ;; Return value:  Size  Location     Type
  1128 ;;                  1    wreg      void 
  1129 ;; Registers used:
  1130 ;;		wreg, status,2, status,0, btemp+1
  1131 ;; Tracked objects:
  1132 ;;		On entry : 0/0
  1133 ;;		On exit  : 0/0
  1134 ;;		Unchanged: 0/0
  1135 ;; Data sizes:     COMMON   BANK0   BANK1   BANK3   BANK2
  1136 ;;      Params:         0       0       0       0       0
  1137 ;;      Locals:         0       0       0       0       0
  1138 ;;      Temps:          0       0       0       0       0
  1139 ;;      Totals:         0       0       0       0       0
  1140 ;;Total ram usage:        0 bytes
  1141 ;; Hardware stack levels used:    1
  1142 ;; Hardware stack levels required when called:    1
  1143 ;; This function calls:
  1144 ;;		Nothing
  1145 ;; This function is called by:
  1146 ;;		_main
  1147 ;; This function uses a non-reentrant model
  1148 ;;
  1149                           
  1150                           
  1151                           ;psect for function _debounce_T
  1152  0133                     _debounce_T:
  1153  0133                     l1237:	
  1154                           ;incstack = 0
  1155                           ; Regs used in _debounce_T: [wreg+status,2+status,0+btemp+1]
  1156                           
  1157  0133  302B               	movlw	43
  1158  0134  0678               	xorwf	_terminal,w
  1159  0135  1D03               	btfss	3,2
  1160  0136  2938               	goto	u241
  1161  0137  2939               	goto	u240
  1162  0138                     u241:
  1163  0138  293D               	goto	l1241
  1164  0139                     u240:
  1165  0139                     l1239:
  1166  0139  1283               	bcf	3,5	;RP0=0, select bank0
  1167  013A  1303               	bcf	3,6	;RP1=0, select bank0
  1168  013B  01A3               	clrf	_flag_T
  1169  013C  0AA3               	incf	_flag_T,f
  1170  013D                     l1241:
  1171  013D  300D               	movlw	13
  1172  013E  0678               	xorwf	_terminal,w
  1173  013F  1D03               	btfss	3,2
  1174  0140  2942               	goto	u251
  1175  0141  2943               	goto	u250
  1176  0142                     u251:
  1177  0142  294F               	goto	l1249
  1178  0143                     u250:
  1179  0143                     l1243:
  1180  0143  1283               	bcf	3,5	;RP0=0, select bank0
  1181  0144  1303               	bcf	3,6	;RP1=0, select bank0
  1182  0145  0323               	decf	_flag_T,w
  1183  0146  1D03               	btfss	3,2
  1184  0147  2949               	goto	u261
  1185  0148  294A               	goto	u260
  1186  0149                     u261:
  1187  0149  294F               	goto	l1249
  1188  014A                     u260:
  1189  014A                     l1245:
  1190  014A  01A3               	clrf	_flag_T
  1191  014B                     l1247:
  1192  014B  3001               	movlw	1
  1193  014C  00FF               	movwf	btemp+1
  1194  014D  087F               	movf	btemp+1,w
  1195  014E  07A0               	addwf	_CONT,f
  1196  014F                     l1249:
  1197  014F  302D               	movlw	45
  1198  0150  0678               	xorwf	_terminal,w
  1199  0151  1D03               	btfss	3,2
  1200  0152  2954               	goto	u271
  1201  0153  2955               	goto	u270
  1202  0154                     u271:
  1203  0154  2959               	goto	l1253
  1204  0155                     u270:
  1205  0155                     l1251:
  1206  0155  1283               	bcf	3,5	;RP0=0, select bank0
  1207  0156  1303               	bcf	3,6	;RP1=0, select bank0
  1208  0157  01A2               	clrf	_flag_T2
  1209  0158  0AA2               	incf	_flag_T2,f
  1210  0159                     l1253:
  1211  0159  300D               	movlw	13
  1212  015A  0678               	xorwf	_terminal,w
  1213  015B  1D03               	btfss	3,2
  1214  015C  295E               	goto	u281
  1215  015D  295F               	goto	u280
  1216  015E                     u281:
  1217  015E  2969               	goto	l119
  1218  015F                     u280:
  1219  015F                     l1255:
  1220  015F  1283               	bcf	3,5	;RP0=0, select bank0
  1221  0160  1303               	bcf	3,6	;RP1=0, select bank0
  1222  0161  0322               	decf	_flag_T2,w
  1223  0162  1D03               	btfss	3,2
  1224  0163  2965               	goto	u291
  1225  0164  2966               	goto	u290
  1226  0165                     u291:
  1227  0165  2969               	goto	l119
  1228  0166                     u290:
  1229  0166                     l1257:
  1230  0166  01A2               	clrf	_flag_T2
  1231  0167                     l1259:
  1232  0167  3001               	movlw	1
  1233  0168  02A0               	subwf	_CONT,f
  1234  0169                     l119:
  1235  0169  0008               	return
  1236  016A                     __end_of_debounce_T:
  1237                           
  1238                           	psect	text3
  1239  02CD                     __ptext3:	
  1240 ;; *************** function _USARTconf *****************
  1241 ;; Defined at:
  1242 ;;		line 3 in file "C:/Users/Carlo/OneDrive/Documentos/Quinto Semestre/Digital2/Lab3.X/usartP.c"
  1243 ;; Parameters:    Size  Location     Type
  1244 ;;		None
  1245 ;; Auto vars:     Size  Location     Type
  1246 ;;		None
  1247 ;; Return value:  Size  Location     Type
  1248 ;;                  1    wreg      void 
  1249 ;; Registers used:
  1250 ;;		wreg, status,2
  1251 ;; Tracked objects:
  1252 ;;		On entry : 0/0
  1253 ;;		On exit  : 0/0
  1254 ;;		Unchanged: 0/0
  1255 ;; Data sizes:     COMMON   BANK0   BANK1   BANK3   BANK2
  1256 ;;      Params:         0       0       0       0       0
  1257 ;;      Locals:         0       0       0       0       0
  1258 ;;      Temps:          0       0       0       0       0
  1259 ;;      Totals:         0       0       0       0       0
  1260 ;;Total ram usage:        0 bytes
  1261 ;; Hardware stack levels used:    1
  1262 ;; Hardware stack levels required when called:    1
  1263 ;; This function calls:
  1264 ;;		Nothing
  1265 ;; This function is called by:
  1266 ;;		_main
  1267 ;; This function uses a non-reentrant model
  1268 ;;
  1269                           
  1270                           
  1271                           ;psect for function _USARTconf
  1272  02CD                     _USARTconf:
  1273  02CD                     l1177:	
  1274                           ;incstack = 0
  1275                           ; Regs used in _USARTconf: [wreg+status,2]
  1276                           
  1277                           
  1278                           ;C:/Users/Carlo/OneDrive/Documentos/Quinto Semestre/Digital2/Lab3.X/usartP.c: 5:  TXSTAb
      +                          its.SYNC = 0;
  1279  02CD  1683               	bsf	3,5	;RP0=1, select bank1
  1280  02CE  1303               	bcf	3,6	;RP1=0, select bank1
  1281  02CF  1218               	bcf	24,4	;volatile
  1282                           
  1283                           ;C:/Users/Carlo/OneDrive/Documentos/Quinto Semestre/Digital2/Lab3.X/usartP.c: 6:  TXSTAb
      +                          its.BRGH = 1;
  1284  02D0  1518               	bsf	24,2	;volatile
  1285                           
  1286                           ;C:/Users/Carlo/OneDrive/Documentos/Quinto Semestre/Digital2/Lab3.X/usartP.c: 7:  TXSTAb
      +                          its.TX9 = 0;
  1287  02D1  1318               	bcf	24,6	;volatile
  1288                           
  1289                           ;C:/Users/Carlo/OneDrive/Documentos/Quinto Semestre/Digital2/Lab3.X/usartP.c: 8:  BAUDCT
      +                          Lbits.BRG16 = 0;
  1290  02D2  1683               	bsf	3,5	;RP0=1, select bank3
  1291  02D3  1703               	bsf	3,6	;RP1=1, select bank3
  1292  02D4  1187               	bcf	7,3	;volatile
  1293  02D5                     l1179:
  1294                           
  1295                           ;C:/Users/Carlo/OneDrive/Documentos/Quinto Semestre/Digital2/Lab3.X/usartP.c: 9:  SPBRGH
      +                           = 0;
  1296  02D5  1683               	bsf	3,5	;RP0=1, select bank1
  1297  02D6  1303               	bcf	3,6	;RP1=0, select bank1
  1298  02D7  019A               	clrf	26	;volatile
  1299  02D8                     l1181:
  1300                           
  1301                           ;C:/Users/Carlo/OneDrive/Documentos/Quinto Semestre/Digital2/Lab3.X/usartP.c: 10:  SPBRG
      +                           = 25;
  1302  02D8  3019               	movlw	25
  1303  02D9  0099               	movwf	25	;volatile
  1304  02DA                     l1183:
  1305                           
  1306                           ;C:/Users/Carlo/OneDrive/Documentos/Quinto Semestre/Digital2/Lab3.X/usartP.c: 12:  RCSTA
      +                          bits.SPEN = 1;
  1307  02DA  1283               	bcf	3,5	;RP0=0, select bank0
  1308  02DB  1303               	bcf	3,6	;RP1=0, select bank0
  1309  02DC  1798               	bsf	24,7	;volatile
  1310  02DD                     l1185:
  1311                           
  1312                           ;C:/Users/Carlo/OneDrive/Documentos/Quinto Semestre/Digital2/Lab3.X/usartP.c: 13:  RCSTA
      +                          bits.RX9 = 0;
  1313  02DD  1318               	bcf	24,6	;volatile
  1314  02DE                     l1187:
  1315                           
  1316                           ;C:/Users/Carlo/OneDrive/Documentos/Quinto Semestre/Digital2/Lab3.X/usartP.c: 14:  RCSTA
      +                          bits.CREN = 1;
  1317  02DE  1618               	bsf	24,4	;volatile
  1318  02DF                     l1189:
  1319                           
  1320                           ;C:/Users/Carlo/OneDrive/Documentos/Quinto Semestre/Digital2/Lab3.X/usartP.c: 16:  TXSTA
      +                          bits.TXEN = 1;
  1321  02DF  1683               	bsf	3,5	;RP0=1, select bank1
  1322  02E0  1303               	bcf	3,6	;RP1=0, select bank1
  1323  02E1  1698               	bsf	24,5	;volatile
  1324  02E2                     l213:
  1325  02E2  0008               	return
  1326  02E3                     __end_of_USARTconf:
  1327                           
  1328                           	psect	text4
  1329  022A                     __ptext4:	
  1330 ;; *************** function _Setup *****************
  1331 ;; Defined at:
  1332 ;;		line 114 in file "C:/Users/Carlo/OneDrive/Documentos/Quinto Semestre/Digital2/Lab3.X/main.c"
  1333 ;; Parameters:    Size  Location     Type
  1334 ;;		None
  1335 ;; Auto vars:     Size  Location     Type
  1336 ;;		None
  1337 ;; Return value:  Size  Location     Type
  1338 ;;                  1    wreg      void 
  1339 ;; Registers used:
  1340 ;;		wreg, status,2
  1341 ;; Tracked objects:
  1342 ;;		On entry : 0/0
  1343 ;;		On exit  : 0/0
  1344 ;;		Unchanged: 0/0
  1345 ;; Data sizes:     COMMON   BANK0   BANK1   BANK3   BANK2
  1346 ;;      Params:         0       0       0       0       0
  1347 ;;      Locals:         0       0       0       0       0
  1348 ;;      Temps:          0       0       0       0       0
  1349 ;;      Totals:         0       0       0       0       0
  1350 ;;Total ram usage:        0 bytes
  1351 ;; Hardware stack levels used:    1
  1352 ;; Hardware stack levels required when called:    1
  1353 ;; This function calls:
  1354 ;;		Nothing
  1355 ;; This function is called by:
  1356 ;;		_main
  1357 ;; This function uses a non-reentrant model
  1358 ;;
  1359                           
  1360                           
  1361                           ;psect for function _Setup
  1362  022A                     _Setup:
  1363  022A                     l1149:	
  1364                           ;incstack = 0
  1365                           ; Regs used in _Setup: [wreg+status,2]
  1366                           
  1367                           
  1368                           ;C:/Users/Carlo/OneDrive/Documentos/Quinto Semestre/Digital2/Lab3.X/main.c: 116:        
      +                               toggle = 1;
  1369  022A  1283               	bcf	3,5	;RP0=0, select bank0
  1370  022B  1303               	bcf	3,6	;RP1=0, select bank0
  1371  022C  0185               	clrf	5	;volatile
  1372                           
  1373                           ;C:/Users/Carlo/OneDrive/Documentos/Quinto Semestre/Digital2/Lab3.X/main.c: 117:        
      +                               ADCinit(1, 9);
  1374  022D  0186               	clrf	6	;volatile
  1375                           
  1376                           ;C:/Users/Carlo/OneDrive/Documentos/Quinto Semestre/Digital2/Lab3.X/main.c: 118:        
      +                               pot1 = lec_ADC;
  1377  022E  0187               	clrf	7	;volatile
  1378                           
  1379                           ;C:/Users/Carlo/OneDrive/Documentos/Quinto Semestre/Digital2/Lab3.X/main.c: 119:        
      +                           }
  1380  022F  0188               	clrf	8	;volatile
  1381                           
  1382                           ;C:/Users/Carlo/OneDrive/Documentos/Quinto Semestre/Digital2/Lab3.X/main.c: 120:        
      +                           else{
  1383  0230  1683               	bsf	3,5	;RP0=1, select bank3
  1384  0231  1703               	bsf	3,6	;RP1=1, select bank3
  1385  0232  0188               	clrf	8	;volatile
  1386  0233                     l1151:
  1387                           
  1388                           ;C:/Users/Carlo/OneDrive/Documentos/Quinto Semestre/Digital2/Lab3.X/main.c: 121:        
      +                               toggle = 0;
  1389  0233  1408               	bsf	8,0	;volatile
  1390                           
  1391                           ;C:/Users/Carlo/OneDrive/Documentos/Quinto Semestre/Digital2/Lab3.X/main.c: 122:        
      +                               ADCinit(1, 11);
  1392  0234  0189               	clrf	9	;volatile
  1393                           
  1394                           ;C:/Users/Carlo/OneDrive/Documentos/Quinto Semestre/Digital2/Lab3.X/main.c: 123:        
      +                               pot2 = lec_ADC;
  1395  0235  1683               	bsf	3,5	;RP0=1, select bank1
  1396  0236  1303               	bcf	3,6	;RP1=0, select bank1
  1397  0237  0185               	clrf	5	;volatile
  1398  0238                     l1153:
  1399                           
  1400                           ;C:/Users/Carlo/OneDrive/Documentos/Quinto Semestre/Digital2/Lab3.X/main.c: 124:        
      +                           }
  1401  0238  3018               	movlw	24
  1402  0239  0086               	movwf	6	;volatile
  1403  023A                     l1155:
  1404                           
  1405                           ;C:/Users/Carlo/OneDrive/Documentos/Quinto Semestre/Digital2/Lab3.X/main.c: 125:     }
  1406  023A  0188               	clrf	8	;volatile
  1407                           
  1408                           ;C:/Users/Carlo/OneDrive/Documentos/Quinto Semestre/Digital2/Lab3.X/main.c: 126: }
  1409  023B  3080               	movlw	128
  1410  023C  0087               	movwf	7	;volatile
  1411  023D                     l1157:
  1412                           
  1413                           ;C:/Users/Carlo/OneDrive/Documentos/Quinto Semestre/Digital2/Lab3.X/main.c: 127: 
  1414  023D  110B               	bcf	11,2	;volatile
  1415  023E                     l1159:
  1416                           
  1417                           ;C:/Users/Carlo/OneDrive/Documentos/Quinto Semestre/Digital2/Lab3.X/main.c: 128: 
  1418  023E  1283               	bcf	3,5	;RP0=0, select bank0
  1419  023F  1303               	bcf	3,6	;RP1=0, select bank0
  1420  0240  130C               	bcf	12,6	;volatile
  1421  0241                     l1161:
  1422                           
  1423                           ;C:/Users/Carlo/OneDrive/Documentos/Quinto Semestre/Digital2/Lab3.X/main.c: 129: 
  1424  0241  100B               	bcf	11,0	;volatile
  1425                           
  1426                           ;C:/Users/Carlo/OneDrive/Documentos/Quinto Semestre/Digital2/Lab3.X/main.c: 132:        
      +                           flag_T = 1;
  1427  0242  30D7               	movlw	215
  1428  0243  1683               	bsf	3,5	;RP0=1, select bank1
  1429  0244  1303               	bcf	3,6	;RP1=0, select bank1
  1430  0245  0081               	movwf	1	;volatile
  1431  0246                     l1163:
  1432                           
  1433                           ;C:/Users/Carlo/OneDrive/Documentos/Quinto Semestre/Digital2/Lab3.X/main.c: 135:     if 
      +                          (terminal == 13){
  1434  0246  178B               	bsf	11,7	;volatile
  1435  0247                     l1165:
  1436                           
  1437                           ;C:/Users/Carlo/OneDrive/Documentos/Quinto Semestre/Digital2/Lab3.X/main.c: 136:        
      +                           if (flag_T == 1){
  1438  0247  170B               	bsf	11,6	;volatile
  1439  0248                     l1167:
  1440                           
  1441                           ;C:/Users/Carlo/OneDrive/Documentos/Quinto Semestre/Digital2/Lab3.X/main.c: 138:        
      +                               CONT++;
  1442  0248  118B               	bcf	11,3	;volatile
  1443  0249                     l1169:
  1444                           
  1445                           ;C:/Users/Carlo/OneDrive/Documentos/Quinto Semestre/Digital2/Lab3.X/main.c: 139:        
      +                           }
  1446  0249  170C               	bsf	12,6	;volatile
  1447  024A                     l1171:
  1448                           
  1449                           ;C:/Users/Carlo/OneDrive/Documentos/Quinto Semestre/Digital2/Lab3.X/main.c: 140:     }
  1450  024A  168B               	bsf	11,5	;volatile
  1451                           
  1452                           ;C:/Users/Carlo/OneDrive/Documentos/Quinto Semestre/Digital2/Lab3.X/main.c: 141: 
  1453  024B  30EC               	movlw	236
  1454  024C  1283               	bcf	3,5	;RP0=0, select bank0
  1455  024D  1303               	bcf	3,6	;RP1=0, select bank0
  1456  024E  0081               	movwf	1	;volatile
  1457  024F                     l1173:
  1458                           
  1459                           ;C:/Users/Carlo/OneDrive/Documentos/Quinto Semestre/Digital2/Lab3.X/main.c: 143:        
      +                           flag_T2 = 1;
  1460  024F  1683               	bsf	3,5	;RP0=1, select bank1
  1461  0250  1303               	bcf	3,6	;RP1=0, select bank1
  1462  0251  168C               	bsf	12,5	;volatile
  1463  0252                     l1175:
  1464                           
  1465                           ;C:/Users/Carlo/OneDrive/Documentos/Quinto Semestre/Digital2/Lab3.X/main.c: 144:     }
  1466  0252  160C               	bsf	12,4	;volatile
  1467  0253                     l105:
  1468  0253  0008               	return
  1469  0254                     __end_of_Setup:
  1470                           
  1471                           	psect	text5
  1472  0254                     __ptext5:	
  1473 ;; *************** function _Lcd_Write_String *****************
  1474 ;; Defined at:
  1475 ;;		line 63 in file "C:/Users/Carlo/OneDrive/Documentos/Quinto Semestre/Digital2/Lab3.X/LCD8BIT.c"
  1476 ;; Parameters:    Size  Location     Type
  1477 ;;  a               1    wreg     PTR unsigned char 
  1478 ;;		 -> STR_2(10), STR_1(15), 
  1479 ;; Auto vars:     Size  Location     Type
  1480 ;;  a               1    2[BANK0 ] PTR unsigned char 
  1481 ;;		 -> STR_2(10), STR_1(15), 
  1482 ;;  i               2    0[BANK0 ] int 
  1483 ;; Return value:  Size  Location     Type
  1484 ;;                  1    wreg      void 
  1485 ;; Registers used:
  1486 ;;		wreg, fsr0l, fsr0h, status,2, status,0, pclath, cstack
  1487 ;; Tracked objects:
  1488 ;;		On entry : 0/0
  1489 ;;		On exit  : 0/0
  1490 ;;		Unchanged: 0/0
  1491 ;; Data sizes:     COMMON   BANK0   BANK1   BANK3   BANK2
  1492 ;;      Params:         0       0       0       0       0
  1493 ;;      Locals:         0       3       0       0       0
  1494 ;;      Temps:          0       0       0       0       0
  1495 ;;      Totals:         0       3       0       0       0
  1496 ;;Total ram usage:        3 bytes
  1497 ;; Hardware stack levels used:    1
  1498 ;; Hardware stack levels required when called:    3
  1499 ;; This function calls:
  1500 ;;		_Lcd_Write_Char
  1501 ;; This function is called by:
  1502 ;;		_main
  1503 ;; This function uses a non-reentrant model
  1504 ;;
  1505                           
  1506                           
  1507                           ;psect for function _Lcd_Write_String
  1508  0254                     _Lcd_Write_String:
  1509                           
  1510                           ;incstack = 0
  1511                           ; Regs used in _Lcd_Write_String: [wreg-fsr0h+status,2+status,0+pclath+cstack]
  1512                           ;Lcd_Write_String@a stored from wreg
  1513  0254  1283               	bcf	3,5	;RP0=0, select bank0
  1514  0255  1303               	bcf	3,6	;RP1=0, select bank0
  1515  0256  00AB               	movwf	Lcd_Write_String@a
  1516  0257                     l1403:
  1517                           
  1518                           ;C:/Users/Carlo/OneDrive/Documentos/Quinto Semestre/Digital2/Lab3.X/LCD8BIT.c: 63: void 
      +                          Lcd_Write_String(char *a);C:/Users/Carlo/OneDrive/Documentos/Quinto Semestre/Digital2/La
      +                          b3.X/LCD8BIT.c: 64: {;C:/Users/Carlo/OneDrive/Documentos/Quinto Semestre/Digital2/Lab3.X
      +                          /LCD8BIT.c: 65:  int i;;C:/Users/Carlo/OneDrive/Documentos/Quinto Semestre/Digital2/Lab3
      +                          .X/LCD8BIT.c: 66:  for(i=0;a[i]!='\0';i++)
  1519  0257  01A9               	clrf	Lcd_Write_String@i
  1520  0258  01AA               	clrf	Lcd_Write_String@i+1
  1521  0259  2A6F               	goto	l1409
  1522  025A                     l1405:
  1523                           
  1524                           ;C:/Users/Carlo/OneDrive/Documentos/Quinto Semestre/Digital2/Lab3.X/LCD8BIT.c: 67:     L
      +                          cd_Write_Char(a[i]);
  1525  025A  0829               	movf	Lcd_Write_String@i,w
  1526  025B  072B               	addwf	Lcd_Write_String@a,w
  1527  025C  0084               	movwf	4
  1528  025D  120A  118A  227D  120A  118A  	fcall	stringdir
  1529  0262  120A  118A  22E3  120A  118A  	fcall	_Lcd_Write_Char
  1530  0267                     l1407:
  1531  0267  3001               	movlw	1
  1532  0268  1283               	bcf	3,5	;RP0=0, select bank0
  1533  0269  1303               	bcf	3,6	;RP1=0, select bank0
  1534  026A  07A9               	addwf	Lcd_Write_String@i,f
  1535  026B  1803               	skipnc
  1536  026C  0AAA               	incf	Lcd_Write_String@i+1,f
  1537  026D  3000               	movlw	0
  1538  026E  07AA               	addwf	Lcd_Write_String@i+1,f
  1539  026F                     l1409:
  1540  026F  0829               	movf	Lcd_Write_String@i,w
  1541  0270  072B               	addwf	Lcd_Write_String@a,w
  1542  0271  0084               	movwf	4
  1543  0272  120A  118A  227D  120A  118A  	fcall	stringdir
  1544  0277  3A00               	xorlw	0
  1545  0278  1D03               	skipz
  1546  0279  2A7B               	goto	u351
  1547  027A  2A7C               	goto	u350
  1548  027B                     u351:
  1549  027B  2A5A               	goto	l1405
  1550  027C                     u350:
  1551  027C                     l183:
  1552  027C  0008               	return
  1553  027D                     __end_of_Lcd_Write_String:
  1554                           
  1555                           	psect	text6
  1556  02E3                     __ptext6:	
  1557 ;; *************** function _Lcd_Write_Char *****************
  1558 ;; Defined at:
  1559 ;;		line 53 in file "C:/Users/Carlo/OneDrive/Documentos/Quinto Semestre/Digital2/Lab3.X/LCD8BIT.c"
  1560 ;; Parameters:    Size  Location     Type
  1561 ;;  a               1    wreg     unsigned char 
  1562 ;; Auto vars:     Size  Location     Type
  1563 ;;  a               1    5[COMMON] unsigned char 
  1564 ;; Return value:  Size  Location     Type
  1565 ;;                  1    wreg      void 
  1566 ;; Registers used:
  1567 ;;		wreg, status,2, status,0, pclath, cstack
  1568 ;; Tracked objects:
  1569 ;;		On entry : 0/0
  1570 ;;		On exit  : 0/0
  1571 ;;		Unchanged: 0/0
  1572 ;; Data sizes:     COMMON   BANK0   BANK1   BANK3   BANK2
  1573 ;;      Params:         0       0       0       0       0
  1574 ;;      Locals:         1       0       0       0       0
  1575 ;;      Temps:          1       0       0       0       0
  1576 ;;      Totals:         2       0       0       0       0
  1577 ;;Total ram usage:        2 bytes
  1578 ;; Hardware stack levels used:    1
  1579 ;; Hardware stack levels required when called:    2
  1580 ;; This function calls:
  1581 ;;		_Lcd_Port
  1582 ;; This function is called by:
  1583 ;;		_Lcd_Write_String
  1584 ;; This function uses a non-reentrant model
  1585 ;;
  1586                           
  1587                           
  1588                           ;psect for function _Lcd_Write_Char
  1589  02E3                     _Lcd_Write_Char:
  1590                           
  1591                           ;incstack = 0
  1592                           ; Regs used in _Lcd_Write_Char: [wreg+status,2+status,0+pclath+cstack]
  1593                           ;Lcd_Write_Char@a stored from wreg
  1594  02E3  00F5               	movwf	Lcd_Write_Char@a
  1595  02E4                     l1373:
  1596                           
  1597                           ;C:/Users/Carlo/OneDrive/Documentos/Quinto Semestre/Digital2/Lab3.X/LCD8BIT.c: 53: void 
      +                          Lcd_Write_Char(char a);C:/Users/Carlo/OneDrive/Documentos/Quinto Semestre/Digital2/Lab3.
      +                          X/LCD8BIT.c: 54: {;C:/Users/Carlo/OneDrive/Documentos/Quinto Semestre/Digital2/Lab3.X/LC
      +                          D8BIT.c: 55:    PORTBbits.RB1 = 1;
  1598  02E4  1283               	bcf	3,5	;RP0=0, select bank0
  1599  02E5  1303               	bcf	3,6	;RP1=0, select bank0
  1600  02E6  1486               	bsf	6,1	;volatile
  1601  02E7                     l1375:
  1602                           
  1603                           ;C:/Users/Carlo/OneDrive/Documentos/Quinto Semestre/Digital2/Lab3.X/LCD8BIT.c: 56:    Lc
      +                          d_Port(a);
  1604  02E7  0875               	movf	Lcd_Write_Char@a,w
  1605  02E8  120A  118A  22F9  120A  118A  	fcall	_Lcd_Port
  1606  02ED                     l1377:
  1607                           
  1608                           ;C:/Users/Carlo/OneDrive/Documentos/Quinto Semestre/Digital2/Lab3.X/LCD8BIT.c: 57:    PO
      +                          RTBbits.RB0 = 1;
  1609  02ED  1283               	bcf	3,5	;RP0=0, select bank0
  1610  02EE  1303               	bcf	3,6	;RP1=0, select bank0
  1611  02EF  1406               	bsf	6,0	;volatile
  1612  02F0                     l1379:
  1613                           
  1614                           ;C:/Users/Carlo/OneDrive/Documentos/Quinto Semestre/Digital2/Lab3.X/LCD8BIT.c: 58:    _d
      +                          elay((unsigned long)((40)*(40000000/4000000.0)));
  1615  02F0  3085               	movlw	133
  1616  02F1  00F4               	movwf	??_Lcd_Write_Char
  1617  02F2                     u397:
  1618  02F2  0BF4               	decfsz	??_Lcd_Write_Char,f
  1619  02F3  2AF2               	goto	u397
  1620  02F4                     l1381:
  1621                           
  1622                           ;C:/Users/Carlo/OneDrive/Documentos/Quinto Semestre/Digital2/Lab3.X/LCD8BIT.c: 59:    PO
      +                          RTBbits.RB0 = 0;
  1623  02F4  1283               	bcf	3,5	;RP0=0, select bank0
  1624  02F5  1303               	bcf	3,6	;RP1=0, select bank0
  1625  02F6  1006               	bcf	6,0	;volatile
  1626  02F7                     l1383:
  1627                           
  1628                           ;C:/Users/Carlo/OneDrive/Documentos/Quinto Semestre/Digital2/Lab3.X/LCD8BIT.c: 60:    PO
      +                          RTBbits.RB1 = 0;
  1629  02F7  1086               	bcf	6,1	;volatile
  1630  02F8                     l177:
  1631  02F8  0008               	return
  1632  02F9                     __end_of_Lcd_Write_Char:
  1633                           
  1634                           	psect	text7
  1635  01FC                     __ptext7:	
  1636 ;; *************** function _Lcd_Set_Cursor *****************
  1637 ;; Defined at:
  1638 ;;		line 35 in file "C:/Users/Carlo/OneDrive/Documentos/Quinto Semestre/Digital2/Lab3.X/LCD8BIT.c"
  1639 ;; Parameters:    Size  Location     Type
  1640 ;;  a               1    wreg     unsigned char 
  1641 ;;  b               1    7[COMMON] unsigned char 
  1642 ;; Auto vars:     Size  Location     Type
  1643 ;;  a               1    0[BANK0 ] unsigned char 
  1644 ;;  z               1    2[BANK0 ] unsigned char 
  1645 ;;  temp            1    1[BANK0 ] unsigned char 
  1646 ;;  y               1    0        unsigned char 
  1647 ;; Return value:  Size  Location     Type
  1648 ;;                  1    wreg      void 
  1649 ;; Registers used:
  1650 ;;		wreg, status,2, status,0, btemp+1, pclath, cstack
  1651 ;; Tracked objects:
  1652 ;;		On entry : 0/0
  1653 ;;		On exit  : 0/0
  1654 ;;		Unchanged: 0/0
  1655 ;; Data sizes:     COMMON   BANK0   BANK1   BANK3   BANK2
  1656 ;;      Params:         1       0       0       0       0
  1657 ;;      Locals:         0       3       0       0       0
  1658 ;;      Temps:          0       0       0       0       0
  1659 ;;      Totals:         1       3       0       0       0
  1660 ;;Total ram usage:        4 bytes
  1661 ;; Hardware stack levels used:    1
  1662 ;; Hardware stack levels required when called:    3
  1663 ;; This function calls:
  1664 ;;		_Lcd_Cmd
  1665 ;; This function is called by:
  1666 ;;		_main
  1667 ;; This function uses a non-reentrant model
  1668 ;;
  1669                           
  1670                           
  1671                           ;psect for function _Lcd_Set_Cursor
  1672  01FC                     _Lcd_Set_Cursor:
  1673                           
  1674                           ;incstack = 0
  1675                           ; Regs used in _Lcd_Set_Cursor: [wreg+status,2+status,0+btemp+1+pclath+cstack]
  1676                           ;Lcd_Set_Cursor@a stored from wreg
  1677  01FC  1283               	bcf	3,5	;RP0=0, select bank0
  1678  01FD  1303               	bcf	3,6	;RP1=0, select bank0
  1679  01FE  00A9               	movwf	Lcd_Set_Cursor@a
  1680  01FF                     l1387:
  1681                           
  1682                           ;C:/Users/Carlo/OneDrive/Documentos/Quinto Semestre/Digital2/Lab3.X/LCD8BIT.c: 35: void 
      +                          Lcd_Set_Cursor(char a, char b);C:/Users/Carlo/OneDrive/Documentos/Quinto Semestre/Digita
      +                          l2/Lab3.X/LCD8BIT.c: 36: {;C:/Users/Carlo/OneDrive/Documentos/Quinto Semestre/Digital2/L
      +                          ab3.X/LCD8BIT.c: 37:  char temp,z,y;;C:/Users/Carlo/OneDrive/Documentos/Quinto Semestre/
      +                          Digital2/Lab3.X/LCD8BIT.c: 38:  if(a == 1)
  1683  01FF  0329               	decf	Lcd_Set_Cursor@a,w
  1684  0200  1D03               	btfss	3,2
  1685  0201  2A03               	goto	u331
  1686  0202  2A04               	goto	u330
  1687  0203                     u331:
  1688  0203  2A14               	goto	l1395
  1689  0204                     u330:
  1690  0204                     l1389:
  1691                           
  1692                           ;C:/Users/Carlo/OneDrive/Documentos/Quinto Semestre/Digital2/Lab3.X/LCD8BIT.c: 39:  {;C:
      +                          /Users/Carlo/OneDrive/Documentos/Quinto Semestre/Digital2/Lab3.X/LCD8BIT.c: 40:    temp 
      +                          = 0x80 + b - 1;
  1693  0204  0877               	movf	Lcd_Set_Cursor@b,w
  1694  0205  3E7F               	addlw	127
  1695  0206  00FF               	movwf	btemp+1
  1696  0207  087F               	movf	btemp+1,w
  1697  0208  00AA               	movwf	Lcd_Set_Cursor@temp
  1698  0209                     l1391:
  1699                           
  1700                           ;C:/Users/Carlo/OneDrive/Documentos/Quinto Semestre/Digital2/Lab3.X/LCD8BIT.c: 41:   z =
      +                           temp;
  1701  0209  082A               	movf	Lcd_Set_Cursor@temp,w
  1702  020A  00FF               	movwf	btemp+1
  1703  020B  087F               	movf	btemp+1,w
  1704  020C  00AB               	movwf	Lcd_Set_Cursor@z
  1705  020D                     l1393:
  1706                           
  1707                           ;C:/Users/Carlo/OneDrive/Documentos/Quinto Semestre/Digital2/Lab3.X/LCD8BIT.c: 42:   Lcd
      +                          _Cmd(z);
  1708  020D  082B               	movf	Lcd_Set_Cursor@z,w
  1709  020E  120A  118A  22B5  120A  118A  	fcall	_Lcd_Cmd
  1710                           
  1711                           ;C:/Users/Carlo/OneDrive/Documentos/Quinto Semestre/Digital2/Lab3.X/LCD8BIT.c: 43:  }
  1712  0213  2A29               	goto	l174
  1713  0214                     l1395:
  1714  0214  3002               	movlw	2
  1715  0215  0629               	xorwf	Lcd_Set_Cursor@a,w
  1716  0216  1D03               	btfss	3,2
  1717  0217  2A19               	goto	u341
  1718  0218  2A1A               	goto	u340
  1719  0219                     u341:
  1720  0219  2A29               	goto	l174
  1721  021A                     u340:
  1722  021A                     l1397:
  1723                           
  1724                           ;C:/Users/Carlo/OneDrive/Documentos/Quinto Semestre/Digital2/Lab3.X/LCD8BIT.c: 45:  {;C:
      +                          /Users/Carlo/OneDrive/Documentos/Quinto Semestre/Digital2/Lab3.X/LCD8BIT.c: 46:   temp =
      +                           0xC0 + b - 1;
  1725  021A  0877               	movf	Lcd_Set_Cursor@b,w
  1726  021B  3EBF               	addlw	191
  1727  021C  00FF               	movwf	btemp+1
  1728  021D  087F               	movf	btemp+1,w
  1729  021E  00AA               	movwf	Lcd_Set_Cursor@temp
  1730  021F                     l1399:
  1731                           
  1732                           ;C:/Users/Carlo/OneDrive/Documentos/Quinto Semestre/Digital2/Lab3.X/LCD8BIT.c: 47:   z =
      +                           temp;
  1733  021F  082A               	movf	Lcd_Set_Cursor@temp,w
  1734  0220  00FF               	movwf	btemp+1
  1735  0221  087F               	movf	btemp+1,w
  1736  0222  00AB               	movwf	Lcd_Set_Cursor@z
  1737  0223                     l1401:
  1738                           
  1739                           ;C:/Users/Carlo/OneDrive/Documentos/Quinto Semestre/Digital2/Lab3.X/LCD8BIT.c: 48:   Lcd
      +                          _Cmd(z);
  1740  0223  082B               	movf	Lcd_Set_Cursor@z,w
  1741  0224  120A  118A  22B5  120A  118A  	fcall	_Lcd_Cmd
  1742  0229                     l174:
  1743  0229  0008               	return
  1744  022A                     __end_of_Lcd_Set_Cursor:
  1745                           
  1746                           	psect	text8
  1747  029C                     __ptext8:	
  1748 ;; *************** function _Lcd_Init *****************
  1749 ;; Defined at:
  1750 ;;		line 10 in file "C:/Users/Carlo/OneDrive/Documentos/Quinto Semestre/Digital2/Lab3.X/LCD8BIT.c"
  1751 ;; Parameters:    Size  Location     Type
  1752 ;;		None
  1753 ;; Auto vars:     Size  Location     Type
  1754 ;;		None
  1755 ;; Return value:  Size  Location     Type
  1756 ;;                  1    wreg      void 
  1757 ;; Registers used:
  1758 ;;		wreg, status,2, status,0, pclath, cstack
  1759 ;; Tracked objects:
  1760 ;;		On entry : 0/0
  1761 ;;		On exit  : 0/0
  1762 ;;		Unchanged: 0/0
  1763 ;; Data sizes:     COMMON   BANK0   BANK1   BANK3   BANK2
  1764 ;;      Params:         0       0       0       0       0
  1765 ;;      Locals:         0       0       0       0       0
  1766 ;;      Temps:          0       0       0       0       0
  1767 ;;      Totals:         0       0       0       0       0
  1768 ;;Total ram usage:        0 bytes
  1769 ;; Hardware stack levels used:    1
  1770 ;; Hardware stack levels required when called:    3
  1771 ;; This function calls:
  1772 ;;		_Lcd_Cmd
  1773 ;; This function is called by:
  1774 ;;		_main
  1775 ;; This function uses a non-reentrant model
  1776 ;;
  1777                           
  1778                           
  1779                           ;psect for function _Lcd_Init
  1780  029C                     _Lcd_Init:
  1781  029C                     l1385:	
  1782                           ;incstack = 0
  1783                           ; Regs used in _Lcd_Init: [wreg+status,2+status,0+pclath+cstack]
  1784                           
  1785                           
  1786                           ;C:/Users/Carlo/OneDrive/Documentos/Quinto Semestre/Digital2/Lab3.X/LCD8BIT.c: 12:     L
      +                          cd_Cmd(0x38);
  1787  029C  3038               	movlw	56
  1788  029D  120A  118A  22B5  120A  118A  	fcall	_Lcd_Cmd
  1789                           
  1790                           ;C:/Users/Carlo/OneDrive/Documentos/Quinto Semestre/Digital2/Lab3.X/LCD8BIT.c: 13:     L
      +                          cd_Cmd(0x0c);
  1791  02A2  300C               	movlw	12
  1792  02A3  120A  118A  22B5  120A  118A  	fcall	_Lcd_Cmd
  1793                           
  1794                           ;C:/Users/Carlo/OneDrive/Documentos/Quinto Semestre/Digital2/Lab3.X/LCD8BIT.c: 14:     L
      +                          cd_Cmd(0x06);
  1795  02A8  3006               	movlw	6
  1796  02A9  120A  118A  22B5  120A  118A  	fcall	_Lcd_Cmd
  1797                           
  1798                           ;C:/Users/Carlo/OneDrive/Documentos/Quinto Semestre/Digital2/Lab3.X/LCD8BIT.c: 15:     L
      +                          cd_Cmd(0x80);
  1799  02AE  3080               	movlw	128
  1800  02AF  120A  118A  22B5  120A  118A  	fcall	_Lcd_Cmd
  1801  02B4                     l162:
  1802  02B4  0008               	return
  1803  02B5                     __end_of_Lcd_Init:
  1804                           
  1805                           	psect	text9
  1806  02B5                     __ptext9:	
  1807 ;; *************** function _Lcd_Cmd *****************
  1808 ;; Defined at:
  1809 ;;		line 19 in file "C:/Users/Carlo/OneDrive/Documentos/Quinto Semestre/Digital2/Lab3.X/LCD8BIT.c"
  1810 ;; Parameters:    Size  Location     Type
  1811 ;;  a               1    wreg     unsigned char 
  1812 ;; Auto vars:     Size  Location     Type
  1813 ;;  a               1    6[COMMON] unsigned char 
  1814 ;; Return value:  Size  Location     Type
  1815 ;;                  1    wreg      void 
  1816 ;; Registers used:
  1817 ;;		wreg, status,2, status,0, pclath, cstack
  1818 ;; Tracked objects:
  1819 ;;		On entry : 0/0
  1820 ;;		On exit  : 0/0
  1821 ;;		Unchanged: 0/0
  1822 ;; Data sizes:     COMMON   BANK0   BANK1   BANK3   BANK2
  1823 ;;      Params:         0       0       0       0       0
  1824 ;;      Locals:         1       0       0       0       0
  1825 ;;      Temps:          2       0       0       0       0
  1826 ;;      Totals:         3       0       0       0       0
  1827 ;;Total ram usage:        3 bytes
  1828 ;; Hardware stack levels used:    1
  1829 ;; Hardware stack levels required when called:    2
  1830 ;; This function calls:
  1831 ;;		_Lcd_Port
  1832 ;; This function is called by:
  1833 ;;		_main
  1834 ;;		_Lcd_Init
  1835 ;;		_Lcd_Set_Cursor
  1836 ;;		_Lcd_Clear
  1837 ;;		_Lcd_Shift_Right
  1838 ;;		_Lcd_Shift_Left
  1839 ;; This function uses a non-reentrant model
  1840 ;;
  1841                           
  1842                           
  1843                           ;psect for function _Lcd_Cmd
  1844  02B5                     _Lcd_Cmd:
  1845                           
  1846                           ;incstack = 0
  1847                           ; Regs used in _Lcd_Cmd: [wreg+status,2+status,0+pclath+cstack]
  1848                           ;Lcd_Cmd@a stored from wreg
  1849  02B5  00F6               	movwf	Lcd_Cmd@a
  1850  02B6                     l1363:
  1851                           
  1852                           ;C:/Users/Carlo/OneDrive/Documentos/Quinto Semestre/Digital2/Lab3.X/LCD8BIT.c: 19: void 
      +                          Lcd_Cmd(char a);C:/Users/Carlo/OneDrive/Documentos/Quinto Semestre/Digital2/Lab3.X/LCD8B
      +                          IT.c: 20: {;C:/Users/Carlo/OneDrive/Documentos/Quinto Semestre/Digital2/Lab3.X/LCD8BIT.c
      +                          : 22:  Lcd_Port(a);
  1853  02B6  0876               	movf	Lcd_Cmd@a,w
  1854  02B7  120A  118A  22F9  120A  118A  	fcall	_Lcd_Port
  1855  02BC                     l1365:
  1856                           
  1857                           ;C:/Users/Carlo/OneDrive/Documentos/Quinto Semestre/Digital2/Lab3.X/LCD8BIT.c: 23:     P
      +                          ORTBbits.RB1 = 0;
  1858  02BC  1283               	bcf	3,5	;RP0=0, select bank0
  1859  02BD  1303               	bcf	3,6	;RP1=0, select bank0
  1860  02BE  1086               	bcf	6,1	;volatile
  1861  02BF                     l1367:
  1862                           
  1863                           ;C:/Users/Carlo/OneDrive/Documentos/Quinto Semestre/Digital2/Lab3.X/LCD8BIT.c: 24:  PORT
      +                          Bbits.RB0 = 1;
  1864  02BF  1406               	bsf	6,0	;volatile
  1865  02C0                     l1369:
  1866                           
  1867                           ;C:/Users/Carlo/OneDrive/Documentos/Quinto Semestre/Digital2/Lab3.X/LCD8BIT.c: 25:     _
      +                          delay((unsigned long)((5)*(40000000/4000.0)));
  1868  02C0  3041               	movlw	65
  1869  02C1  00F5               	movwf	??_Lcd_Cmd+1
  1870  02C2  30EE               	movlw	238
  1871  02C3  00F4               	movwf	??_Lcd_Cmd
  1872  02C4                     u407:
  1873  02C4  0BF4               	decfsz	??_Lcd_Cmd,f
  1874  02C5  2AC4               	goto	u407
  1875  02C6  0BF5               	decfsz	??_Lcd_Cmd+1,f
  1876  02C7  2AC4               	goto	u407
  1877  02C8  0000               	nop
  1878  02C9                     l1371:
  1879                           
  1880                           ;C:/Users/Carlo/OneDrive/Documentos/Quinto Semestre/Digital2/Lab3.X/LCD8BIT.c: 26:     P
      +                          ORTBbits.RB0 = 0;
  1881  02C9  1283               	bcf	3,5	;RP0=0, select bank0
  1882  02CA  1303               	bcf	3,6	;RP1=0, select bank0
  1883  02CB  1006               	bcf	6,0	;volatile
  1884  02CC                     l165:
  1885  02CC  0008               	return
  1886  02CD                     __end_of_Lcd_Cmd:
  1887                           
  1888                           	psect	text10
  1889  02F9                     __ptext10:	
  1890 ;; *************** function _Lcd_Port *****************
  1891 ;; Defined at:
  1892 ;;		line 5 in file "C:/Users/Carlo/OneDrive/Documentos/Quinto Semestre/Digital2/Lab3.X/LCD8BIT.c"
  1893 ;; Parameters:    Size  Location     Type
  1894 ;;  a               1    wreg     unsigned char 
  1895 ;; Auto vars:     Size  Location     Type
  1896 ;;  a               1    3[COMMON] unsigned char 
  1897 ;; Return value:  Size  Location     Type
  1898 ;;                  1    wreg      void 
  1899 ;; Registers used:
  1900 ;;		wreg
  1901 ;; Tracked objects:
  1902 ;;		On entry : 0/0
  1903 ;;		On exit  : 0/0
  1904 ;;		Unchanged: 0/0
  1905 ;; Data sizes:     COMMON   BANK0   BANK1   BANK3   BANK2
  1906 ;;      Params:         0       0       0       0       0
  1907 ;;      Locals:         1       0       0       0       0
  1908 ;;      Temps:          0       0       0       0       0
  1909 ;;      Totals:         1       0       0       0       0
  1910 ;;Total ram usage:        1 bytes
  1911 ;; Hardware stack levels used:    1
  1912 ;; Hardware stack levels required when called:    1
  1913 ;; This function calls:
  1914 ;;		Nothing
  1915 ;; This function is called by:
  1916 ;;		_Lcd_Cmd
  1917 ;;		_Lcd_Write_Char
  1918 ;; This function uses a non-reentrant model
  1919 ;;
  1920                           
  1921                           
  1922                           ;psect for function _Lcd_Port
  1923  02F9                     _Lcd_Port:
  1924                           
  1925                           ;incstack = 0
  1926                           ; Regs used in _Lcd_Port: [wreg]
  1927                           ;Lcd_Port@a stored from wreg
  1928  02F9  00F3               	movwf	Lcd_Port@a
  1929  02FA                     l1361:
  1930                           
  1931                           ;C:/Users/Carlo/OneDrive/Documentos/Quinto Semestre/Digital2/Lab3.X/LCD8BIT.c: 5: void L
      +                          cd_Port(char a);C:/Users/Carlo/OneDrive/Documentos/Quinto Semestre/Digital2/Lab3.X/LCD8B
      +                          IT.c: 6: {;C:/Users/Carlo/OneDrive/Documentos/Quinto Semestre/Digital2/Lab3.X/LCD8BIT.c:
      +                           7:  PORTD = a;
  1932  02FA  0873               	movf	Lcd_Port@a,w
  1933  02FB  1283               	bcf	3,5	;RP0=0, select bank0
  1934  02FC  1303               	bcf	3,6	;RP1=0, select bank0
  1935  02FD  0088               	movwf	8	;volatile
  1936  02FE                     l159:
  1937  02FE  0008               	return
  1938  02FF                     __end_of_Lcd_Port:
  1939                           
  1940                           	psect	text11
  1941  016A                     __ptext11:	
  1942 ;; *************** function _ADC_LEER *****************
  1943 ;; Defined at:
  1944 ;;		line 150 in file "C:/Users/Carlo/OneDrive/Documentos/Quinto Semestre/Digital2/Lab3.X/main.c"
  1945 ;; Parameters:    Size  Location     Type
  1946 ;;		None
  1947 ;; Auto vars:     Size  Location     Type
  1948 ;;		None
  1949 ;; Return value:  Size  Location     Type
  1950 ;;                  1    wreg      void 
  1951 ;; Registers used:
  1952 ;;		wreg, fsr0l, fsr0h, status,2, status,0, btemp+1, pclath, cstack
  1953 ;; Tracked objects:
  1954 ;;		On entry : 0/0
  1955 ;;		On exit  : 0/0
  1956 ;;		Unchanged: 0/0
  1957 ;; Data sizes:     COMMON   BANK0   BANK1   BANK3   BANK2
  1958 ;;      Params:         0       0       0       0       0
  1959 ;;      Locals:         0       0       0       0       0
  1960 ;;      Temps:          0       0       0       0       0
  1961 ;;      Totals:         0       0       0       0       0
  1962 ;;Total ram usage:        0 bytes
  1963 ;; Hardware stack levels used:    1
  1964 ;; Hardware stack levels required when called:    2
  1965 ;; This function calls:
  1966 ;;		_ADCinit
  1967 ;; This function is called by:
  1968 ;;		_main
  1969 ;; This function uses a non-reentrant model
  1970 ;;
  1971                           
  1972                           
  1973                           ;psect for function _ADC_LEER
  1974  016A                     _ADC_LEER:
  1975  016A                     l1217:	
  1976                           ;incstack = 0
  1977                           ; Regs used in _ADC_LEER: [wreg-fsr0h+status,2+status,0+btemp+1+pclath+cstack]
  1978                           
  1979  016A  3006               	movlw	6
  1980  016B  027A               	subwf	_go_adc,w
  1981  016C  1C03               	skipc
  1982  016D  296F               	goto	u221
  1983  016E  2970               	goto	u220
  1984  016F                     u221:
  1985  016F  299D               	goto	l111
  1986  0170                     u220:
  1987  0170                     l1219:
  1988  0170  01FA               	clrf	_go_adc
  1989  0171                     l1221:
  1990  0171  1283               	bcf	3,5	;RP0=0, select bank0
  1991  0172  1303               	bcf	3,6	;RP1=0, select bank0
  1992  0173  149F               	bsf	31,1	;volatile
  1993  0174                     l1223:
  1994  0174  0828               	movf	_toggle,w
  1995  0175  1D03               	btfss	3,2
  1996  0176  2978               	goto	u231
  1997  0177  2979               	goto	u230
  1998  0178                     u231:
  1999  0178  298C               	goto	l1231
  2000  0179                     u230:
  2001  0179                     l1225:
  2002  0179  01A8               	clrf	_toggle
  2003  017A  0AA8               	incf	_toggle,f
  2004  017B                     l1227:
  2005  017B  3009               	movlw	9
  2006  017C  00FF               	movwf	btemp+1
  2007  017D  087F               	movf	btemp+1,w
  2008  017E  00F3               	movwf	ADCinit@chan
  2009  017F  3001               	movlw	1
  2010  0180  120A  118A  2025  120A  118A  	fcall	_ADCinit
  2011  0185                     l1229:
  2012  0185  0879               	movf	_lec_ADC,w
  2013  0186  00FF               	movwf	btemp+1
  2014  0187  087F               	movf	btemp+1,w
  2015  0188  1283               	bcf	3,5	;RP0=0, select bank0
  2016  0189  1303               	bcf	3,6	;RP1=0, select bank0
  2017  018A  00A5               	movwf	_pot1
  2018  018B  299D               	goto	l111
  2019  018C                     l1231:
  2020  018C  01A8               	clrf	_toggle
  2021  018D                     l1233:
  2022  018D  300B               	movlw	11
  2023  018E  00FF               	movwf	btemp+1
  2024  018F  087F               	movf	btemp+1,w
  2025  0190  00F3               	movwf	ADCinit@chan
  2026  0191  3001               	movlw	1
  2027  0192  120A  118A  2025  120A  118A  	fcall	_ADCinit
  2028  0197                     l1235:
  2029  0197  0879               	movf	_lec_ADC,w
  2030  0198  00FF               	movwf	btemp+1
  2031  0199  087F               	movf	btemp+1,w
  2032  019A  1283               	bcf	3,5	;RP0=0, select bank0
  2033  019B  1303               	bcf	3,6	;RP1=0, select bank0
  2034  019C  00A4               	movwf	_pot2
  2035  019D                     l111:
  2036  019D  0008               	return
  2037  019E                     __end_of_ADC_LEER:
  2038                           
  2039                           	psect	text12
  2040  0025                     __ptext12:	
  2041 ;; *************** function _ADCinit *****************
  2042 ;; Defined at:
  2043 ;;		line 9 in file "C:/Users/Carlo/OneDrive/Documentos/Quinto Semestre/Digital2/Lab3.X/ADCLIB.c"
  2044 ;; Parameters:    Size  Location     Type
  2045 ;;  vel             1    wreg     unsigned char 
  2046 ;;  chan            1    3[COMMON] unsigned char 
  2047 ;; Auto vars:     Size  Location     Type
  2048 ;;  vel             1    6[COMMON] unsigned char 
  2049 ;; Return value:  Size  Location     Type
  2050 ;;                  1    wreg      void 
  2051 ;; Registers used:
  2052 ;;		wreg, fsr0l, fsr0h, status,2, status,0
  2053 ;; Tracked objects:
  2054 ;;		On entry : 0/0
  2055 ;;		On exit  : 0/0
  2056 ;;		Unchanged: 0/0
  2057 ;; Data sizes:     COMMON   BANK0   BANK1   BANK3   BANK2
  2058 ;;      Params:         1       0       0       0       0
  2059 ;;      Locals:         1       0       0       0       0
  2060 ;;      Temps:          2       0       0       0       0
  2061 ;;      Totals:         4       0       0       0       0
  2062 ;;Total ram usage:        4 bytes
  2063 ;; Hardware stack levels used:    1
  2064 ;; Hardware stack levels required when called:    1
  2065 ;; This function calls:
  2066 ;;		Nothing
  2067 ;; This function is called by:
  2068 ;;		_main
  2069 ;;		_ADC_LEER
  2070 ;; This function uses a non-reentrant model
  2071 ;;
  2072                           
  2073                           
  2074                           ;psect for function _ADCinit
  2075  0025                     _ADCinit:
  2076                           
  2077                           ;incstack = 0
  2078                           ; Regs used in _ADCinit: [wreg-fsr0h+status,2+status,0]
  2079                           ;ADCinit@vel stored from wreg
  2080  0025  00F6               	movwf	ADCinit@vel
  2081  0026                     l1107:
  2082                           
  2083                           ;C:/Users/Carlo/OneDrive/Documentos/Quinto Semestre/Digital2/Lab3.X/ADCLIB.c: 10:     sw
      +                          itch(vel){
  2084  0026  283B               	goto	l1111
  2085  0027                     l127:	
  2086                           ;C:/Users/Carlo/OneDrive/Documentos/Quinto Semestre/Digital2/Lab3.X/ADCLIB.c: 11:       
      +                            case 1:
  2087                           
  2088                           
  2089                           ;C:/Users/Carlo/OneDrive/Documentos/Quinto Semestre/Digital2/Lab3.X/ADCLIB.c: 12:       
      +                                ADCON0bits.ADCS0 = 1;
  2090  0027  1283               	bcf	3,5	;RP0=0, select bank0
  2091  0028  1303               	bcf	3,6	;RP1=0, select bank0
  2092  0029  171F               	bsf	31,6	;volatile
  2093                           
  2094                           ;C:/Users/Carlo/OneDrive/Documentos/Quinto Semestre/Digital2/Lab3.X/ADCLIB.c: 13:       
      +                                ADCON0bits.ADCS1 = 0;
  2095  002A  139F               	bcf	31,7	;volatile
  2096                           
  2097                           ;C:/Users/Carlo/OneDrive/Documentos/Quinto Semestre/Digital2/Lab3.X/ADCLIB.c: 14:       
      +                                break;
  2098  002B  2894               	goto	l1115
  2099  002C                     l129:	
  2100                           ;C:/Users/Carlo/OneDrive/Documentos/Quinto Semestre/Digital2/Lab3.X/ADCLIB.c: 15:       
      +                            case 2:
  2101                           
  2102                           
  2103                           ;C:/Users/Carlo/OneDrive/Documentos/Quinto Semestre/Digital2/Lab3.X/ADCLIB.c: 16:       
      +                                ADCON0bits.ADCS0 = 0;
  2104  002C  1283               	bcf	3,5	;RP0=0, select bank0
  2105  002D  1303               	bcf	3,6	;RP1=0, select bank0
  2106  002E  131F               	bcf	31,6	;volatile
  2107                           
  2108                           ;C:/Users/Carlo/OneDrive/Documentos/Quinto Semestre/Digital2/Lab3.X/ADCLIB.c: 17:       
      +                                ADCON0bits.ADCS1 = 1;
  2109  002F  179F               	bsf	31,7	;volatile
  2110                           
  2111                           ;C:/Users/Carlo/OneDrive/Documentos/Quinto Semestre/Digital2/Lab3.X/ADCLIB.c: 18:       
      +                                break;
  2112  0030  2894               	goto	l1115
  2113  0031                     l130:	
  2114                           ;C:/Users/Carlo/OneDrive/Documentos/Quinto Semestre/Digital2/Lab3.X/ADCLIB.c: 19:       
      +                            case 3:
  2115                           
  2116                           
  2117                           ;C:/Users/Carlo/OneDrive/Documentos/Quinto Semestre/Digital2/Lab3.X/ADCLIB.c: 20:       
      +                                ADCON0bits.ADCS0 = 1;
  2118  0031  1283               	bcf	3,5	;RP0=0, select bank0
  2119  0032  1303               	bcf	3,6	;RP1=0, select bank0
  2120  0033  171F               	bsf	31,6	;volatile
  2121                           
  2122                           ;C:/Users/Carlo/OneDrive/Documentos/Quinto Semestre/Digital2/Lab3.X/ADCLIB.c: 21:       
      +                                ADCON0bits.ADCS1 = 1;
  2123  0034  179F               	bsf	31,7	;volatile
  2124                           
  2125                           ;C:/Users/Carlo/OneDrive/Documentos/Quinto Semestre/Digital2/Lab3.X/ADCLIB.c: 22:       
      +                                break;
  2126  0035  2894               	goto	l1115
  2127  0036                     l131:	
  2128                           ;C:/Users/Carlo/OneDrive/Documentos/Quinto Semestre/Digital2/Lab3.X/ADCLIB.c: 23:       
      +                            default:
  2129                           
  2130                           
  2131                           ;C:/Users/Carlo/OneDrive/Documentos/Quinto Semestre/Digital2/Lab3.X/ADCLIB.c: 24:       
      +                                ADCON0bits.ADCS0 = 0;
  2132  0036  1283               	bcf	3,5	;RP0=0, select bank0
  2133  0037  1303               	bcf	3,6	;RP1=0, select bank0
  2134  0038  131F               	bcf	31,6	;volatile
  2135                           
  2136                           ;C:/Users/Carlo/OneDrive/Documentos/Quinto Semestre/Digital2/Lab3.X/ADCLIB.c: 25:       
      +                                ADCON0bits.ADCS1 = 0;
  2137  0039  139F               	bcf	31,7	;volatile
  2138                           
  2139                           ;C:/Users/Carlo/OneDrive/Documentos/Quinto Semestre/Digital2/Lab3.X/ADCLIB.c: 26:       
      +                                break;
  2140  003A  2894               	goto	l1115
  2141  003B                     l1111:
  2142  003B  0876               	movf	ADCinit@vel,w
  2143  003C  00F4               	movwf	??_ADCinit
  2144  003D  01F5               	clrf	??_ADCinit+1
  2145                           
  2146                           ; Switch on 2 bytes has been partitioned into a top level switch of size 1, and 1 sub-sw
      +                          itches
  2147                           ; Switch size 1, requested type "simple"
  2148                           ; Number of cases is 1, Range of values is 0 to 0
  2149                           ; switch strategies available:
  2150                           ; Name         Instructions Cycles
  2151                           ; simple_byte            4     3 (average)
  2152                           ; direct_byte           11     8 (fixed)
  2153                           ; jumptable            260     6 (fixed)
  2154                           ;	Chosen strategy is simple_byte
  2155  003E  0875               	movf	??_ADCinit+1,w
  2156  003F  3A00               	xorlw	0	; case 0
  2157  0040  1903               	skipnz
  2158  0041  2843               	goto	l1513
  2159  0042  2836               	goto	l131
  2160  0043                     l1513:
  2161                           
  2162                           ; Switch size 1, requested type "simple"
  2163                           ; Number of cases is 3, Range of values is 1 to 3
  2164                           ; switch strategies available:
  2165                           ; Name         Instructions Cycles
  2166                           ; simple_byte           10     6 (average)
  2167                           ; direct_byte           20    11 (fixed)
  2168                           ; jumptable            263     9 (fixed)
  2169                           ;	Chosen strategy is simple_byte
  2170  0043  0874               	movf	??_ADCinit,w
  2171  0044  3A01               	xorlw	1	; case 1
  2172  0045  1903               	skipnz
  2173  0046  2827               	goto	l127
  2174  0047  3A03               	xorlw	3	; case 2
  2175  0048  1903               	skipnz
  2176  0049  282C               	goto	l129
  2177  004A  3A01               	xorlw	1	; case 3
  2178  004B  1903               	skipnz
  2179  004C  2831               	goto	l130
  2180  004D  2836               	goto	l131
  2181  004E                     l133:	
  2182                           ;C:/Users/Carlo/OneDrive/Documentos/Quinto Semestre/Digital2/Lab3.X/ADCLIB.c: 30:       
      +                            default:
  2183                           
  2184                           
  2185                           ;C:/Users/Carlo/OneDrive/Documentos/Quinto Semestre/Digital2/Lab3.X/ADCLIB.c: 31:       
      +                                ADCON0bits.CHS0 = 0;
  2186  004E  111F               	bcf	31,2	;volatile
  2187                           
  2188                           ;C:/Users/Carlo/OneDrive/Documentos/Quinto Semestre/Digital2/Lab3.X/ADCLIB.c: 32:       
      +                                ADCON0bits.CHS1 = 0;
  2189  004F  119F               	bcf	31,3	;volatile
  2190                           
  2191                           ;C:/Users/Carlo/OneDrive/Documentos/Quinto Semestre/Digital2/Lab3.X/ADCLIB.c: 33:       
      +                                ADCON0bits.CHS2 = 0;
  2192  0050  121F               	bcf	31,4	;volatile
  2193                           
  2194                           ;C:/Users/Carlo/OneDrive/Documentos/Quinto Semestre/Digital2/Lab3.X/ADCLIB.c: 34:       
      +                                ADCON0bits.CHS3 = 0;
  2195  0051  129F               	bcf	31,5	;volatile
  2196                           
  2197                           ;C:/Users/Carlo/OneDrive/Documentos/Quinto Semestre/Digital2/Lab3.X/ADCLIB.c: 35:       
      +                                break;
  2198  0052  28C5               	goto	l134
  2199  0053                     l135:	
  2200                           ;C:/Users/Carlo/OneDrive/Documentos/Quinto Semestre/Digital2/Lab3.X/ADCLIB.c: 36:       
      +                            case 1:
  2201                           
  2202                           
  2203                           ;C:/Users/Carlo/OneDrive/Documentos/Quinto Semestre/Digital2/Lab3.X/ADCLIB.c: 37:       
      +                                ADCON0bits.CHS0 = 1;
  2204  0053  151F               	bsf	31,2	;volatile
  2205                           
  2206                           ;C:/Users/Carlo/OneDrive/Documentos/Quinto Semestre/Digital2/Lab3.X/ADCLIB.c: 38:       
      +                                ADCON0bits.CHS1 = 0;
  2207  0054  119F               	bcf	31,3	;volatile
  2208                           
  2209                           ;C:/Users/Carlo/OneDrive/Documentos/Quinto Semestre/Digital2/Lab3.X/ADCLIB.c: 39:       
      +                                ADCON0bits.CHS2 = 0;
  2210  0055  121F               	bcf	31,4	;volatile
  2211                           
  2212                           ;C:/Users/Carlo/OneDrive/Documentos/Quinto Semestre/Digital2/Lab3.X/ADCLIB.c: 40:       
      +                                ADCON0bits.CHS3 = 0;
  2213  0056  129F               	bcf	31,5	;volatile
  2214                           
  2215                           ;C:/Users/Carlo/OneDrive/Documentos/Quinto Semestre/Digital2/Lab3.X/ADCLIB.c: 41:       
      +                                break;
  2216  0057  28C5               	goto	l134
  2217  0058                     l136:	
  2218                           ;C:/Users/Carlo/OneDrive/Documentos/Quinto Semestre/Digital2/Lab3.X/ADCLIB.c: 42:       
      +                            case 2:
  2219                           
  2220                           
  2221                           ;C:/Users/Carlo/OneDrive/Documentos/Quinto Semestre/Digital2/Lab3.X/ADCLIB.c: 43:       
      +                                ADCON0bits.CHS0 = 0;
  2222  0058  111F               	bcf	31,2	;volatile
  2223                           
  2224                           ;C:/Users/Carlo/OneDrive/Documentos/Quinto Semestre/Digital2/Lab3.X/ADCLIB.c: 44:       
      +                                ADCON0bits.CHS1 = 1;
  2225  0059  159F               	bsf	31,3	;volatile
  2226                           
  2227                           ;C:/Users/Carlo/OneDrive/Documentos/Quinto Semestre/Digital2/Lab3.X/ADCLIB.c: 45:       
      +                                ADCON0bits.CHS2 = 0;
  2228  005A  121F               	bcf	31,4	;volatile
  2229                           
  2230                           ;C:/Users/Carlo/OneDrive/Documentos/Quinto Semestre/Digital2/Lab3.X/ADCLIB.c: 46:       
      +                                ADCON0bits.CHS3 = 0;
  2231  005B  129F               	bcf	31,5	;volatile
  2232                           
  2233                           ;C:/Users/Carlo/OneDrive/Documentos/Quinto Semestre/Digital2/Lab3.X/ADCLIB.c: 47:       
      +                                break;
  2234  005C  28C5               	goto	l134
  2235  005D                     l137:	
  2236                           ;C:/Users/Carlo/OneDrive/Documentos/Quinto Semestre/Digital2/Lab3.X/ADCLIB.c: 48:       
      +                            case 3:
  2237                           
  2238                           
  2239                           ;C:/Users/Carlo/OneDrive/Documentos/Quinto Semestre/Digital2/Lab3.X/ADCLIB.c: 49:       
      +                                ADCON0bits.CHS0 = 1;
  2240  005D  151F               	bsf	31,2	;volatile
  2241                           
  2242                           ;C:/Users/Carlo/OneDrive/Documentos/Quinto Semestre/Digital2/Lab3.X/ADCLIB.c: 50:       
      +                                ADCON0bits.CHS1 = 1;
  2243  005E  159F               	bsf	31,3	;volatile
  2244                           
  2245                           ;C:/Users/Carlo/OneDrive/Documentos/Quinto Semestre/Digital2/Lab3.X/ADCLIB.c: 51:       
      +                                ADCON0bits.CHS2 = 0;
  2246  005F  121F               	bcf	31,4	;volatile
  2247                           
  2248                           ;C:/Users/Carlo/OneDrive/Documentos/Quinto Semestre/Digital2/Lab3.X/ADCLIB.c: 52:       
      +                                ADCON0bits.CHS3 = 0;
  2249  0060  129F               	bcf	31,5	;volatile
  2250                           
  2251                           ;C:/Users/Carlo/OneDrive/Documentos/Quinto Semestre/Digital2/Lab3.X/ADCLIB.c: 53:       
      +                                break;
  2252  0061  28C5               	goto	l134
  2253  0062                     l138:	
  2254                           ;C:/Users/Carlo/OneDrive/Documentos/Quinto Semestre/Digital2/Lab3.X/ADCLIB.c: 54:       
      +                            case 4:
  2255                           
  2256                           
  2257                           ;C:/Users/Carlo/OneDrive/Documentos/Quinto Semestre/Digital2/Lab3.X/ADCLIB.c: 55:       
      +                                ADCON0bits.CHS0 = 0;
  2258  0062  111F               	bcf	31,2	;volatile
  2259                           
  2260                           ;C:/Users/Carlo/OneDrive/Documentos/Quinto Semestre/Digital2/Lab3.X/ADCLIB.c: 56:       
      +                                ADCON0bits.CHS1 = 0;
  2261  0063  119F               	bcf	31,3	;volatile
  2262                           
  2263                           ;C:/Users/Carlo/OneDrive/Documentos/Quinto Semestre/Digital2/Lab3.X/ADCLIB.c: 57:       
      +                                ADCON0bits.CHS2 = 1;
  2264  0064  161F               	bsf	31,4	;volatile
  2265                           
  2266                           ;C:/Users/Carlo/OneDrive/Documentos/Quinto Semestre/Digital2/Lab3.X/ADCLIB.c: 58:       
      +                                ADCON0bits.CHS3 = 0;
  2267  0065  129F               	bcf	31,5	;volatile
  2268                           
  2269                           ;C:/Users/Carlo/OneDrive/Documentos/Quinto Semestre/Digital2/Lab3.X/ADCLIB.c: 59:       
      +                                break;
  2270  0066  28C5               	goto	l134
  2271  0067                     l139:	
  2272                           ;C:/Users/Carlo/OneDrive/Documentos/Quinto Semestre/Digital2/Lab3.X/ADCLIB.c: 60:       
      +                            case 5:
  2273                           
  2274                           
  2275                           ;C:/Users/Carlo/OneDrive/Documentos/Quinto Semestre/Digital2/Lab3.X/ADCLIB.c: 61:       
      +                                ADCON0bits.CHS0 = 1;
  2276  0067  151F               	bsf	31,2	;volatile
  2277                           
  2278                           ;C:/Users/Carlo/OneDrive/Documentos/Quinto Semestre/Digital2/Lab3.X/ADCLIB.c: 62:       
      +                                ADCON0bits.CHS1 = 0;
  2279  0068  119F               	bcf	31,3	;volatile
  2280                           
  2281                           ;C:/Users/Carlo/OneDrive/Documentos/Quinto Semestre/Digital2/Lab3.X/ADCLIB.c: 63:       
      +                                ADCON0bits.CHS2 = 1;
  2282  0069  161F               	bsf	31,4	;volatile
  2283                           
  2284                           ;C:/Users/Carlo/OneDrive/Documentos/Quinto Semestre/Digital2/Lab3.X/ADCLIB.c: 64:       
      +                                ADCON0bits.CHS3 = 0;
  2285  006A  129F               	bcf	31,5	;volatile
  2286                           
  2287                           ;C:/Users/Carlo/OneDrive/Documentos/Quinto Semestre/Digital2/Lab3.X/ADCLIB.c: 65:       
      +                                break;
  2288  006B  28C5               	goto	l134
  2289  006C                     l140:	
  2290                           ;C:/Users/Carlo/OneDrive/Documentos/Quinto Semestre/Digital2/Lab3.X/ADCLIB.c: 66:       
      +                            case 6:
  2291                           
  2292                           
  2293                           ;C:/Users/Carlo/OneDrive/Documentos/Quinto Semestre/Digital2/Lab3.X/ADCLIB.c: 67:       
      +                                ADCON0bits.CHS0 = 0;
  2294  006C  111F               	bcf	31,2	;volatile
  2295                           
  2296                           ;C:/Users/Carlo/OneDrive/Documentos/Quinto Semestre/Digital2/Lab3.X/ADCLIB.c: 68:       
      +                                ADCON0bits.CHS1 = 1;
  2297  006D  159F               	bsf	31,3	;volatile
  2298                           
  2299                           ;C:/Users/Carlo/OneDrive/Documentos/Quinto Semestre/Digital2/Lab3.X/ADCLIB.c: 69:       
      +                                ADCON0bits.CHS2 = 1;
  2300  006E  161F               	bsf	31,4	;volatile
  2301                           
  2302                           ;C:/Users/Carlo/OneDrive/Documentos/Quinto Semestre/Digital2/Lab3.X/ADCLIB.c: 70:       
      +                                ADCON0bits.CHS3 = 0;
  2303  006F  129F               	bcf	31,5	;volatile
  2304                           
  2305                           ;C:/Users/Carlo/OneDrive/Documentos/Quinto Semestre/Digital2/Lab3.X/ADCLIB.c: 71:       
      +                                break;
  2306  0070  28C5               	goto	l134
  2307  0071                     l141:	
  2308                           ;C:/Users/Carlo/OneDrive/Documentos/Quinto Semestre/Digital2/Lab3.X/ADCLIB.c: 72:       
      +                            case 7:
  2309                           
  2310                           
  2311                           ;C:/Users/Carlo/OneDrive/Documentos/Quinto Semestre/Digital2/Lab3.X/ADCLIB.c: 73:       
      +                                ADCON0bits.CHS0 = 1;
  2312  0071  151F               	bsf	31,2	;volatile
  2313                           
  2314                           ;C:/Users/Carlo/OneDrive/Documentos/Quinto Semestre/Digital2/Lab3.X/ADCLIB.c: 74:       
      +                                ADCON0bits.CHS1 = 1;
  2315  0072  159F               	bsf	31,3	;volatile
  2316                           
  2317                           ;C:/Users/Carlo/OneDrive/Documentos/Quinto Semestre/Digital2/Lab3.X/ADCLIB.c: 75:       
      +                                ADCON0bits.CHS2 = 1;
  2318  0073  161F               	bsf	31,4	;volatile
  2319                           
  2320                           ;C:/Users/Carlo/OneDrive/Documentos/Quinto Semestre/Digital2/Lab3.X/ADCLIB.c: 76:       
      +                                ADCON0bits.CHS3 = 0;
  2321  0074  129F               	bcf	31,5	;volatile
  2322                           
  2323                           ;C:/Users/Carlo/OneDrive/Documentos/Quinto Semestre/Digital2/Lab3.X/ADCLIB.c: 77:       
      +                                break;
  2324  0075  28C5               	goto	l134
  2325  0076                     l142:	
  2326                           ;C:/Users/Carlo/OneDrive/Documentos/Quinto Semestre/Digital2/Lab3.X/ADCLIB.c: 78:       
      +                            case 8:
  2327                           
  2328                           
  2329                           ;C:/Users/Carlo/OneDrive/Documentos/Quinto Semestre/Digital2/Lab3.X/ADCLIB.c: 79:       
      +                                ADCON0bits.CHS0 = 0;
  2330  0076  111F               	bcf	31,2	;volatile
  2331                           
  2332                           ;C:/Users/Carlo/OneDrive/Documentos/Quinto Semestre/Digital2/Lab3.X/ADCLIB.c: 80:       
      +                                ADCON0bits.CHS1 = 0;
  2333  0077  119F               	bcf	31,3	;volatile
  2334                           
  2335                           ;C:/Users/Carlo/OneDrive/Documentos/Quinto Semestre/Digital2/Lab3.X/ADCLIB.c: 81:       
      +                                ADCON0bits.CHS2 = 0;
  2336  0078  121F               	bcf	31,4	;volatile
  2337                           
  2338                           ;C:/Users/Carlo/OneDrive/Documentos/Quinto Semestre/Digital2/Lab3.X/ADCLIB.c: 82:       
      +                                ADCON0bits.CHS3 = 1;
  2339  0079  169F               	bsf	31,5	;volatile
  2340                           
  2341                           ;C:/Users/Carlo/OneDrive/Documentos/Quinto Semestre/Digital2/Lab3.X/ADCLIB.c: 83:       
      +                                break;
  2342  007A  28C5               	goto	l134
  2343  007B                     l143:	
  2344                           ;C:/Users/Carlo/OneDrive/Documentos/Quinto Semestre/Digital2/Lab3.X/ADCLIB.c: 84:       
      +                            case 9:
  2345                           
  2346                           
  2347                           ;C:/Users/Carlo/OneDrive/Documentos/Quinto Semestre/Digital2/Lab3.X/ADCLIB.c: 85:       
      +                                ADCON0bits.CHS0 = 1;
  2348  007B  151F               	bsf	31,2	;volatile
  2349                           
  2350                           ;C:/Users/Carlo/OneDrive/Documentos/Quinto Semestre/Digital2/Lab3.X/ADCLIB.c: 86:       
      +                                ADCON0bits.CHS1 = 0;
  2351  007C  119F               	bcf	31,3	;volatile
  2352                           
  2353                           ;C:/Users/Carlo/OneDrive/Documentos/Quinto Semestre/Digital2/Lab3.X/ADCLIB.c: 87:       
      +                                ADCON0bits.CHS2 = 0;
  2354  007D  121F               	bcf	31,4	;volatile
  2355                           
  2356                           ;C:/Users/Carlo/OneDrive/Documentos/Quinto Semestre/Digital2/Lab3.X/ADCLIB.c: 88:       
      +                                ADCON0bits.CHS3 = 1;
  2357  007E  169F               	bsf	31,5	;volatile
  2358                           
  2359                           ;C:/Users/Carlo/OneDrive/Documentos/Quinto Semestre/Digital2/Lab3.X/ADCLIB.c: 89:       
      +                                break;
  2360  007F  28C5               	goto	l134
  2361  0080                     l144:	
  2362                           ;C:/Users/Carlo/OneDrive/Documentos/Quinto Semestre/Digital2/Lab3.X/ADCLIB.c: 90:       
      +                            case 10:
  2363                           
  2364                           
  2365                           ;C:/Users/Carlo/OneDrive/Documentos/Quinto Semestre/Digital2/Lab3.X/ADCLIB.c: 91:       
      +                                ADCON0bits.CHS0 = 0;
  2366  0080  111F               	bcf	31,2	;volatile
  2367                           
  2368                           ;C:/Users/Carlo/OneDrive/Documentos/Quinto Semestre/Digital2/Lab3.X/ADCLIB.c: 92:       
      +                                ADCON0bits.CHS1 = 1;
  2369  0081  159F               	bsf	31,3	;volatile
  2370                           
  2371                           ;C:/Users/Carlo/OneDrive/Documentos/Quinto Semestre/Digital2/Lab3.X/ADCLIB.c: 93:       
      +                                ADCON0bits.CHS2 = 0;
  2372  0082  121F               	bcf	31,4	;volatile
  2373                           
  2374                           ;C:/Users/Carlo/OneDrive/Documentos/Quinto Semestre/Digital2/Lab3.X/ADCLIB.c: 94:       
      +                                ADCON0bits.CHS3 = 1;
  2375  0083  169F               	bsf	31,5	;volatile
  2376                           
  2377                           ;C:/Users/Carlo/OneDrive/Documentos/Quinto Semestre/Digital2/Lab3.X/ADCLIB.c: 95:       
      +                                break;
  2378  0084  28C5               	goto	l134
  2379  0085                     l145:	
  2380                           ;C:/Users/Carlo/OneDrive/Documentos/Quinto Semestre/Digital2/Lab3.X/ADCLIB.c: 96:       
      +                            case 11:
  2381                           
  2382                           
  2383                           ;C:/Users/Carlo/OneDrive/Documentos/Quinto Semestre/Digital2/Lab3.X/ADCLIB.c: 97:       
      +                                ADCON0bits.CHS0 = 1;
  2384  0085  151F               	bsf	31,2	;volatile
  2385                           
  2386                           ;C:/Users/Carlo/OneDrive/Documentos/Quinto Semestre/Digital2/Lab3.X/ADCLIB.c: 98:       
      +                                ADCON0bits.CHS1 = 1;
  2387  0086  159F               	bsf	31,3	;volatile
  2388                           
  2389                           ;C:/Users/Carlo/OneDrive/Documentos/Quinto Semestre/Digital2/Lab3.X/ADCLIB.c: 99:       
      +                                ADCON0bits.CHS2 = 0;
  2390  0087  121F               	bcf	31,4	;volatile
  2391                           
  2392                           ;C:/Users/Carlo/OneDrive/Documentos/Quinto Semestre/Digital2/Lab3.X/ADCLIB.c: 100:      
      +                                 ADCON0bits.CHS3 = 1;
  2393  0088  169F               	bsf	31,5	;volatile
  2394                           
  2395                           ;C:/Users/Carlo/OneDrive/Documentos/Quinto Semestre/Digital2/Lab3.X/ADCLIB.c: 101:      
      +                                 break;
  2396  0089  28C5               	goto	l134
  2397  008A                     l146:	
  2398                           ;C:/Users/Carlo/OneDrive/Documentos/Quinto Semestre/Digital2/Lab3.X/ADCLIB.c: 102:      
      +                             case 12:
  2399                           
  2400                           
  2401                           ;C:/Users/Carlo/OneDrive/Documentos/Quinto Semestre/Digital2/Lab3.X/ADCLIB.c: 103:      
      +                                 ADCON0bits.CHS0 = 0;
  2402  008A  111F               	bcf	31,2	;volatile
  2403                           
  2404                           ;C:/Users/Carlo/OneDrive/Documentos/Quinto Semestre/Digital2/Lab3.X/ADCLIB.c: 104:      
      +                                 ADCON0bits.CHS1 = 0;
  2405  008B  119F               	bcf	31,3	;volatile
  2406                           
  2407                           ;C:/Users/Carlo/OneDrive/Documentos/Quinto Semestre/Digital2/Lab3.X/ADCLIB.c: 105:      
      +                                 ADCON0bits.CHS2 = 1;
  2408  008C  161F               	bsf	31,4	;volatile
  2409                           
  2410                           ;C:/Users/Carlo/OneDrive/Documentos/Quinto Semestre/Digital2/Lab3.X/ADCLIB.c: 106:      
      +                                 ADCON0bits.CHS3 = 1;
  2411  008D  169F               	bsf	31,5	;volatile
  2412                           
  2413                           ;C:/Users/Carlo/OneDrive/Documentos/Quinto Semestre/Digital2/Lab3.X/ADCLIB.c: 107:      
      +                                 break;
  2414  008E  28C5               	goto	l134
  2415  008F                     l147:	
  2416                           ;C:/Users/Carlo/OneDrive/Documentos/Quinto Semestre/Digital2/Lab3.X/ADCLIB.c: 108:      
      +                             case 13:
  2417                           
  2418                           
  2419                           ;C:/Users/Carlo/OneDrive/Documentos/Quinto Semestre/Digital2/Lab3.X/ADCLIB.c: 109:      
      +                                 ADCON0bits.CHS0 = 1;
  2420  008F  151F               	bsf	31,2	;volatile
  2421                           
  2422                           ;C:/Users/Carlo/OneDrive/Documentos/Quinto Semestre/Digital2/Lab3.X/ADCLIB.c: 110:      
      +                                 ADCON0bits.CHS1 = 0;
  2423  0090  119F               	bcf	31,3	;volatile
  2424                           
  2425                           ;C:/Users/Carlo/OneDrive/Documentos/Quinto Semestre/Digital2/Lab3.X/ADCLIB.c: 111:      
      +                                 ADCON0bits.CHS2 = 1;
  2426  0091  161F               	bsf	31,4	;volatile
  2427                           
  2428                           ;C:/Users/Carlo/OneDrive/Documentos/Quinto Semestre/Digital2/Lab3.X/ADCLIB.c: 112:      
      +                                 ADCON0bits.CHS3 = 1;
  2429  0092  169F               	bsf	31,5	;volatile
  2430                           
  2431                           ;C:/Users/Carlo/OneDrive/Documentos/Quinto Semestre/Digital2/Lab3.X/ADCLIB.c: 113:      
      +                                 break;
  2432  0093  28C5               	goto	l134
  2433  0094                     l1115:
  2434  0094  0873               	movf	ADCinit@chan,w
  2435  0095  00F4               	movwf	??_ADCinit
  2436  0096  01F5               	clrf	??_ADCinit+1
  2437                           
  2438                           ; Switch on 2 bytes has been partitioned into a top level switch of size 1, and 1 sub-sw
      +                          itches
  2439                           ; Switch size 1, requested type "simple"
  2440                           ; Number of cases is 1, Range of values is 0 to 0
  2441                           ; switch strategies available:
  2442                           ; Name         Instructions Cycles
  2443                           ; simple_byte            4     3 (average)
  2444                           ; direct_byte           11     8 (fixed)
  2445                           ; jumptable            260     6 (fixed)
  2446                           ;	Chosen strategy is simple_byte
  2447  0097  0875               	movf	??_ADCinit+1,w
  2448  0098  3A00               	xorlw	0	; case 0
  2449  0099  1903               	skipnz
  2450  009A  289C               	goto	l1515
  2451  009B  284E               	goto	l133
  2452  009C                     l1515:
  2453                           
  2454                           ; Switch size 1, requested type "simple"
  2455                           ; Number of cases is 13, Range of values is 1 to 13
  2456                           ; switch strategies available:
  2457                           ; Name         Instructions Cycles
  2458                           ; simple_byte           40    21 (average)
  2459                           ; direct_byte           50    11 (fixed)
  2460                           ; jumptable            263     9 (fixed)
  2461                           ;	Chosen strategy is simple_byte
  2462  009C  0874               	movf	??_ADCinit,w
  2463  009D  3A01               	xorlw	1	; case 1
  2464  009E  1903               	skipnz
  2465  009F  2853               	goto	l135
  2466  00A0  3A03               	xorlw	3	; case 2
  2467  00A1  1903               	skipnz
  2468  00A2  2858               	goto	l136
  2469  00A3  3A01               	xorlw	1	; case 3
  2470  00A4  1903               	skipnz
  2471  00A5  285D               	goto	l137
  2472  00A6  3A07               	xorlw	7	; case 4
  2473  00A7  1903               	skipnz
  2474  00A8  2862               	goto	l138
  2475  00A9  3A01               	xorlw	1	; case 5
  2476  00AA  1903               	skipnz
  2477  00AB  2867               	goto	l139
  2478  00AC  3A03               	xorlw	3	; case 6
  2479  00AD  1903               	skipnz
  2480  00AE  286C               	goto	l140
  2481  00AF  3A01               	xorlw	1	; case 7
  2482  00B0  1903               	skipnz
  2483  00B1  2871               	goto	l141
  2484  00B2  3A0F               	xorlw	15	; case 8
  2485  00B3  1903               	skipnz
  2486  00B4  2876               	goto	l142
  2487  00B5  3A01               	xorlw	1	; case 9
  2488  00B6  1903               	skipnz
  2489  00B7  287B               	goto	l143
  2490  00B8  3A03               	xorlw	3	; case 10
  2491  00B9  1903               	skipnz
  2492  00BA  2880               	goto	l144
  2493  00BB  3A01               	xorlw	1	; case 11
  2494  00BC  1903               	skipnz
  2495  00BD  2885               	goto	l145
  2496  00BE  3A07               	xorlw	7	; case 12
  2497  00BF  1903               	skipnz
  2498  00C0  288A               	goto	l146
  2499  00C1  3A01               	xorlw	1	; case 13
  2500  00C2  1903               	skipnz
  2501  00C3  288F               	goto	l147
  2502  00C4  284E               	goto	l133
  2503  00C5                     l134:
  2504                           
  2505                           ;C:/Users/Carlo/OneDrive/Documentos/Quinto Semestre/Digital2/Lab3.X/ADCLIB.c: 115:     A
      +                          DCON0bits.GO = 0;
  2506  00C5  109F               	bcf	31,1	;volatile
  2507                           
  2508                           ;C:/Users/Carlo/OneDrive/Documentos/Quinto Semestre/Digital2/Lab3.X/ADCLIB.c: 116:     A
      +                          DCON0bits.ADON = 1;
  2509  00C6  141F               	bsf	31,0	;volatile
  2510  00C7                     l1117:
  2511                           
  2512                           ;C:/Users/Carlo/OneDrive/Documentos/Quinto Semestre/Digital2/Lab3.X/ADCLIB.c: 117:     A
      +                          DCON1 = 0;
  2513  00C7  1683               	bsf	3,5	;RP0=1, select bank1
  2514  00C8  1303               	bcf	3,6	;RP1=0, select bank1
  2515  00C9  019F               	clrf	31	;volatile
  2516  00CA                     l148:
  2517  00CA  0008               	return
  2518  00CB                     __end_of_ADCinit:
  2519                           
  2520                           	psect	text13
  2521  01CD                     __ptext13:	
  2522 ;; *************** function _ISR *****************
  2523 ;; Defined at:
  2524 ;;		line 67 in file "C:/Users/Carlo/OneDrive/Documentos/Quinto Semestre/Digital2/Lab3.X/main.c"
  2525 ;; Parameters:    Size  Location     Type
  2526 ;;		None
  2527 ;; Auto vars:     Size  Location     Type
  2528 ;;		None
  2529 ;; Return value:  Size  Location     Type
  2530 ;;                  1    wreg      void 
  2531 ;; Registers used:
  2532 ;;		wreg, status,2, status,0, btemp+1
  2533 ;; Tracked objects:
  2534 ;;		On entry : 0/0
  2535 ;;		On exit  : 0/0
  2536 ;;		Unchanged: 0/0
  2537 ;; Data sizes:     COMMON   BANK0   BANK1   BANK3   BANK2
  2538 ;;      Params:         0       0       0       0       0
  2539 ;;      Locals:         0       0       0       0       0
  2540 ;;      Temps:          3       0       0       0       0
  2541 ;;      Totals:         3       0       0       0       0
  2542 ;;Total ram usage:        3 bytes
  2543 ;; Hardware stack levels used:    1
  2544 ;; This function calls:
  2545 ;;		Nothing
  2546 ;; This function is called by:
  2547 ;;		Interrupt level 1
  2548 ;; This function uses a non-reentrant model
  2549 ;;
  2550                           
  2551                           
  2552                           ;psect for function _ISR
  2553  01CD                     _ISR:
  2554  01CD                     i1l971:
  2555                           
  2556                           ;C:/Users/Carlo/OneDrive/Documentos/Quinto Semestre/Digital2/Lab3.X/main.c: 68:         
      +                          debounce_T();
  2557  01CD  1F0C               	btfss	12,6	;volatile
  2558  01CE  29D0               	goto	u12_21
  2559  01CF  29D1               	goto	u12_20
  2560  01D0                     u12_21:
  2561  01D0  29D6               	goto	i1l977
  2562  01D1                     u12_20:
  2563  01D1                     i1l973:
  2564                           
  2565                           ;C:/Users/Carlo/OneDrive/Documentos/Quinto Semestre/Digital2/Lab3.X/main.c: 69: 
  2566  01D1  130C               	bcf	12,6	;volatile
  2567  01D2                     i1l975:
  2568                           
  2569                           ;C:/Users/Carlo/OneDrive/Documentos/Quinto Semestre/Digital2/Lab3.X/main.c: 70:     }
  2570  01D2  081E               	movf	30,w	;volatile
  2571  01D3  00FF               	movwf	btemp+1
  2572  01D4  087F               	movf	btemp+1,w
  2573  01D5  00F9               	movwf	_lec_ADC
  2574  01D6                     i1l977:
  2575                           
  2576                           ;C:/Users/Carlo/OneDrive/Documentos/Quinto Semestre/Digital2/Lab3.X/main.c: 72: 
  2577  01D6  1D0B               	btfss	11,2	;volatile
  2578  01D7  29D9               	goto	u13_21
  2579  01D8  29DA               	goto	u13_20
  2580  01D9                     u13_21:
  2581  01D9  29E1               	goto	i1l985
  2582  01DA                     u13_20:
  2583  01DA                     i1l979:
  2584                           
  2585                           ;C:/Users/Carlo/OneDrive/Documentos/Quinto Semestre/Digital2/Lab3.X/main.c: 73: 
  2586  01DA  110B               	bcf	11,2	;volatile
  2587  01DB                     i1l981:
  2588                           
  2589                           ;C:/Users/Carlo/OneDrive/Documentos/Quinto Semestre/Digital2/Lab3.X/main.c: 74: 
  2590  01DB  30EC               	movlw	236
  2591  01DC  0081               	movwf	1	;volatile
  2592  01DD                     i1l983:
  2593                           
  2594                           ;C:/Users/Carlo/OneDrive/Documentos/Quinto Semestre/Digital2/Lab3.X/main.c: 75: void Set
      +                          up(void){
  2595  01DD  3001               	movlw	1
  2596  01DE  00FF               	movwf	btemp+1
  2597  01DF  087F               	movf	btemp+1,w
  2598  01E0  07FA               	addwf	_go_adc,f
  2599  01E1                     i1l985:
  2600                           
  2601                           ;C:/Users/Carlo/OneDrive/Documentos/Quinto Semestre/Digital2/Lab3.X/main.c: 77:     PORT
      +                          A = 0;
  2602  01E1  1E8C               	btfss	12,5	;volatile
  2603  01E2  29E4               	goto	u14_21
  2604  01E3  29E5               	goto	u14_20
  2605  01E4                     u14_21:
  2606  01E4  29E9               	goto	i1l989
  2607  01E5                     u14_20:
  2608  01E5                     i1l987:
  2609                           
  2610                           ;C:/Users/Carlo/OneDrive/Documentos/Quinto Semestre/Digital2/Lab3.X/main.c: 78:     PORT
      +                          B = 0;
  2611  01E5  081A               	movf	26,w	;volatile
  2612  01E6  00FF               	movwf	btemp+1
  2613  01E7  087F               	movf	btemp+1,w
  2614  01E8  00F8               	movwf	_terminal
  2615  01E9                     i1l989:
  2616                           
  2617                           ;C:/Users/Carlo/OneDrive/Documentos/Quinto Semestre/Digital2/Lab3.X/main.c: 80:     PORT
      +                          D = 0;
  2618  01E9  1E0C               	btfss	12,4	;volatile
  2619  01EA  29EC               	goto	u15_21
  2620  01EB  29ED               	goto	u15_20
  2621  01EC                     u15_21:
  2622  01EC  29F2               	goto	i1l93
  2623  01ED                     u15_20:
  2624  01ED                     i1l991:
  2625                           
  2626                           ;C:/Users/Carlo/OneDrive/Documentos/Quinto Semestre/Digital2/Lab3.X/main.c: 81:     ANSE
      +                          L = 0;
  2627  01ED  3030               	movlw	48
  2628  01EE  0099               	movwf	25	;volatile
  2629  01EF                     i1l993:
  2630                           
  2631                           ;C:/Users/Carlo/OneDrive/Documentos/Quinto Semestre/Digital2/Lab3.X/main.c: 82:     ANSE
      +                          Lbits.ANS0 = 1;
  2632  01EF  1683               	bsf	3,5	;RP0=1, select bank1
  2633  01F0  1303               	bcf	3,6	;RP1=0, select bank1
  2634  01F1  120C               	bcf	12,4	;volatile
  2635  01F2                     i1l93:
  2636  01F2  0872               	movf	??_ISR+2,w
  2637  01F3  1283               	bcf	3,5	;RP0=0, select bank0
  2638  01F4  00FF               	movwf	btemp+1
  2639  01F5  0871               	movf	??_ISR+1,w
  2640  01F6  008A               	movwf	10
  2641  01F7  0E70               	swapf	??_ISR^(0+4294967168),w
  2642  01F8  0083               	movwf	3
  2643  01F9  0EFE               	swapf	btemp,f
  2644  01FA  0E7E               	swapf	btemp,w
  2645  01FB  0009               	retfie
  2646  01FC                     __end_of_ISR:
  2647  007E                     btemp	set	126	;btemp
  2648  007E                     wtemp0	set	126
  2649                           
  2650                           	psect	intentry
  2651  0004                     __pintentry:	
  2652                           ;incstack = 0
  2653                           ; Regs used in _ISR: [wreg+status,2+status,0+btemp+1]
  2654                           
  2655  0004                     interrupt_function:
  2656  007E                     saved_w	set	btemp
  2657  0004  00FE               	movwf	btemp
  2658  0005  0E03               	swapf	3,w
  2659  0006  00F0               	movwf	??_ISR
  2660  0007  080A               	movf	10,w
  2661  0008  00F1               	movwf	??_ISR+1
  2662  0009  1283               	bcf	3,5	;RP0=0, select bank0
  2663  000A  1303               	bcf	3,6	;RP1=0, select bank0
  2664  000B  087F               	movf	btemp+1,w
  2665  000C  00F2               	movwf	??_ISR+2
  2666  000D  120A  118A  29CD   	ljmp	_ISR
  2667                           
  2668                           	psect	config
  2669                           
  2670                           ;Config register CONFIG1 @ 0x2007
  2671                           ;	Oscillator Selection bits
  2672                           ;	FOSC = INTRC_NOCLKOUT, INTOSCIO oscillator: I/O function on RA6/OSC2/CLKOUT pin, I/O f
      +                          unction on RA7/OSC1/CLKIN
  2673                           ;	Watchdog Timer Enable bit
  2674                           ;	WDTE = OFF, WDT disabled and can be enabled by SWDTEN bit of the WDTCON register
  2675                           ;	Power-up Timer Enable bit
  2676                           ;	PWRTE = OFF, PWRT disabled
  2677                           ;	RE3/MCLR pin function select bit
  2678                           ;	MCLRE = OFF, RE3/MCLR pin function is digital input, MCLR internally tied to VDD
  2679                           ;	Code Protection bit
  2680                           ;	CP = OFF, Program memory code protection is disabled
  2681                           ;	Data Code Protection bit
  2682                           ;	CPD = OFF, Data memory code protection is disabled
  2683                           ;	Brown Out Reset Selection bits
  2684                           ;	BOREN = OFF, BOR disabled
  2685                           ;	Internal External Switchover bit
  2686                           ;	IESO = OFF, Internal/External Switchover mode is disabled
  2687                           ;	Fail-Safe Clock Monitor Enabled bit
  2688                           ;	FCMEN = OFF, Fail-Safe Clock Monitor is disabled
  2689                           ;	Low Voltage Programming Enable bit
  2690                           ;	LVP = OFF, RB3 pin has digital I/O, HV on MCLR must be used for programming
  2691                           ;	In-Circuit Debugger Mode bit
  2692                           ;	DEBUG = 0x1, unprogrammed default
  2693  2007                     	org	8199
  2694  2007  20D4               	dw	8404
  2695                           
  2696                           ;Config register CONFIG2 @ 0x2008
  2697                           ;	Brown-out Reset Selection bit
  2698                           ;	BOR4V = BOR40V, Brown-out Reset set to 4.0V
  2699                           ;	Flash Program Memory Self Write Enable bits
  2700                           ;	WRT = OFF, Write protection off
  2701  2008                     	org	8200
  2702  2008  3FFF               	dw	16383

Data Sizes:
    Strings     25
    Constant    0
    Data        0
    BSS         12
    Persistent  0
    Stack       0

Auto Spaces:
    Space          Size  Autos    Used
    COMMON           14      8      11
    BANK0            80      3      12
    BANK1            80      0       0
    BANK3            96      0       0
    BANK2            96      0       0

Pointer List with Targets:

    Lcd_Write_String@a	PTR unsigned char  size(1) Largest target is 15
		 -> STR_2(CODE[10]), STR_1(CODE[15]), 


Critical Paths under _main in COMMON

    _main->_Lcd_Set_Cursor
    _Lcd_Write_String->_Lcd_Write_Char
    _Lcd_Write_Char->_Lcd_Port
    _Lcd_Set_Cursor->_Lcd_Cmd
    _Lcd_Init->_Lcd_Cmd
    _Lcd_Cmd->_Lcd_Port
    _ADC_LEER->_ADCinit

Critical Paths under _ISR in COMMON

    None.

Critical Paths under _main in BANK0

    _main->_Lcd_Set_Cursor
    _main->_Lcd_Write_String

Critical Paths under _ISR in BANK0

    None.

Critical Paths under _main in BANK1

    None.

Critical Paths under _ISR in BANK1

    None.

Critical Paths under _main in BANK3

    None.

Critical Paths under _ISR in BANK3

    None.

Critical Paths under _main in BANK2

    None.

Critical Paths under _ISR in BANK2

    None.

Call Graph Tables:

 ---------------------------------------------------------------------------------
 (Depth) Function   	        Calls       Base Space   Used Autos Params    Refs
 ---------------------------------------------------------------------------------
 (0) _main                                                 0     0      0    1456
                           _ADC_LEER
                            _ADCinit
                            _Lcd_Cmd
                           _Lcd_Init
                     _Lcd_Set_Cursor
                   _Lcd_Write_String
                              _Setup
                          _USARTconf
                         _debounce_T
                            _initOsc
 ---------------------------------------------------------------------------------
 (1) _initOsc                                              3     3      0      22
                                              3 COMMON     3     3      0
 ---------------------------------------------------------------------------------
 (1) _debounce_T                                           0     0      0       0
 ---------------------------------------------------------------------------------
 (1) _USARTconf                                            0     0      0       0
 ---------------------------------------------------------------------------------
 (1) _Setup                                                0     0      0       0
 ---------------------------------------------------------------------------------
 (1) _Lcd_Write_String                                     3     3      0     264
                                              0 BANK0      3     3      0
                     _Lcd_Write_Char
 ---------------------------------------------------------------------------------
 (2) _Lcd_Write_Char                                       2     2      0      62
                                              4 COMMON     2     2      0
                           _Lcd_Port
 ---------------------------------------------------------------------------------
 (1) _Lcd_Set_Cursor                                       5     4      1     502
                                              7 COMMON     1     0      1
                                              0 BANK0      3     3      0
                            _Lcd_Cmd
 ---------------------------------------------------------------------------------
 (1) _Lcd_Init                                             0     0      0      62
                            _Lcd_Cmd
 ---------------------------------------------------------------------------------
 (2) _Lcd_Cmd                                              3     3      0      62
                                              4 COMMON     3     3      0
                           _Lcd_Port
 ---------------------------------------------------------------------------------
 (3) _Lcd_Port                                             1     1      0      31
                                              3 COMMON     1     1      0
 ---------------------------------------------------------------------------------
 (1) _ADC_LEER                                             0     0      0     272
                            _ADCinit
 ---------------------------------------------------------------------------------
 (1) _ADCinit                                              4     3      1     272
                                              3 COMMON     4     3      1
 ---------------------------------------------------------------------------------
 Estimated maximum stack depth 3
 ---------------------------------------------------------------------------------
 (Depth) Function   	        Calls       Base Space   Used Autos Params    Refs
 ---------------------------------------------------------------------------------
 (4) _ISR                                                  3     3      0       0
                                              0 COMMON     3     3      0
 ---------------------------------------------------------------------------------
 Estimated maximum stack depth 4
 ---------------------------------------------------------------------------------

 Call Graph Graphs:

 _main (ROOT)
   _ADC_LEER
     _ADCinit
   _ADCinit
   _Lcd_Cmd
     _Lcd_Port
   _Lcd_Init
     _Lcd_Cmd
       _Lcd_Port
   _Lcd_Set_Cursor
     _Lcd_Cmd
       _Lcd_Port
   _Lcd_Write_String
     _Lcd_Write_Char
       _Lcd_Port
   _Setup
   _USARTconf
   _debounce_T
   _initOsc

 _ISR (ROOT)

 Address spaces:
Name               Size   Autos  Total    Cost      Usage
BITCOMMON            E      0       0       0        0.0%
EEDATA             100      0       0       0        0.0%
NULL                 0      0       0       0        0.0%
CODE                 0      0       0       0        0.0%
COMMON               E      8       B       1       78.6%
BITSFR0              0      0       0       1        0.0%
SFR0                 0      0       0       1        0.0%
BITSFR1              0      0       0       2        0.0%
SFR1                 0      0       0       2        0.0%
STACK                0      0       0       2        0.0%
ABS                  0      0      17       3        0.0%
BITBANK0            50      0       0       4        0.0%
BITSFR3              0      0       0       4        0.0%
SFR3                 0      0       0       4        0.0%
BANK0               50      3       C       5       15.0%
BITSFR2              0      0       0       5        0.0%
SFR2                 0      0       0       5        0.0%
BITBANK1            50      0       0       6        0.0%
BANK1               50      0       0       7        0.0%
BITBANK3            60      0       0       8        0.0%
BANK3               60      0       0       9        0.0%
BITBANK2            60      0       0      10        0.0%
BANK2               60      0       0      11        0.0%
DATA                 0      0      17      12        0.0%


Microchip Technology PIC Macro Assembler V2.20 build 20200408173844 
Symbol Table                                                                                   Sat Feb 06 23:13:23 2021

                        pc 0002                         fsr 0004                        l111 019D  
                      l200 01CC                        l105 0253                        l130 0031  
                      l131 0036                        l140 006C                        l141 0071  
                      l133 004E                        l213 02E2                        l142 0076  
                      l134 00C5                        l143 007B                        l135 0053  
                      l127 0027                        l119 0169                        l144 0080  
                      l136 0058                        l145 0085                        l137 005D  
                      l129 002C                        l146 008A                        l138 0062  
                      l162 02B4                        l147 008F                        l139 0067  
                      l148 00CA                        l165 02CC                        l174 0229  
                      l159 02FE                        l183 027C                        l177 02F8  
                      l195 01A0                        l196 01CB                        l197 01A6  
                      l198 01AC                        l199 01B2                        u220 0170  
                      u221 016F                        u230 0179                        u231 0178  
                      u240 0139                        u241 0138                        u330 0204  
                      u250 0143                        u331 0203                        u251 0142  
                      u340 021A                        u260 014A                        u341 0219  
                      u261 0149                        u350 027C                        u270 0155  
                      u407 02C4                        u351 027B                        u271 0154  
                      u280 015F                        u360 011A                        u281 015E  
                      u361 0119                        u290 0166                        u370 0120  
                      u291 0165                        u371 011F                        u380 0126  
                      _ISR 01CD                        u381 0125                        u397 02F2  
                      fsr0 0004            __end_of_ADCinit 00CB                       ?_ISR 0070  
                     l1111 003B                       l1115 0094                       l1107 0026  
                     l1117 00C7                       l1221 0171                       l1231 018C  
                     l1223 0174                       l1151 0233                       l1143 01B8  
                     l1233 018D                       l1225 0179                       l1217 016A  
                     l1401 0223                       l1161 0241                       l1153 0238  
                     l1241 013D                       l1235 0197                       l1227 017B  
                     l1219 0170                       l1403 0257                       l1171 024A  
                     l1163 0246                       l1155 023A                       l1251 0155  
                     l1243 0143                       l1139 019F                       l1411 00CB  
                     l1229 0185                       l1405 025A                       l1173 024F  
                     l1165 0247                       l1157 023D                       l1149 022A  
                     l1181 02D8                       l1253 0159                       l1245 014A  
                     l1237 0133                       l1421 00E3                       l1413 00CE  
                     l1407 0267                       l1175 0252                       l1167 0248  
                     l1159 023E                       l1183 02DA                       l1255 015F  
                     l1247 014B                       l1239 0139                       l1511 01C0  
                     l1431 0109                       l1423 00E9                       l1415 00D4  
                     l1513 0043                       l1361 02FA                       l1409 026F  
                     l1169 0249                       l1185 02DD                       l1177 02CD  
                     l1257 0166                       l1249 014F                       l1441 0126  
                     l1433 010F                       l1425 00F3                       l1417 00D9  
                     l1515 009C                       l1371 02C9                       l1363 02B6  
                     l1187 02DE                       l1179 02D5                       l1259 0167  
                     l1443 012A                       l1435 0114                       l1427 00FB  
                     l1419 00DE                       l1365 02BC                       l1381 02F4  
                     l1373 02E4                       l1189 02DF                       l1437 011A  
                     l1429 0101                       l1367 02BF                       l1391 0209  
                     l1383 02F7                       l1375 02E7                       l1439 0120  
                     l1369 02C0                       l1385 029C                       l1393 020D  
                     l1377 02ED                       l1395 0214                       l1387 01FF  
                     l1379 02F0                       l1397 021A                       l1389 0204  
                     l1399 021F                       STR_1 0283                       STR_2 0292  
                     _CONT 0020                       i1l93 01F2                       _TMR0 0001  
        ?_Lcd_Write_String 0070           __end_of_ADC_LEER 019E                       _main 00CB  
                     _pot1 0025                       _pot2 0024                       btemp 007E  
                     start 0010         ??_Lcd_Write_String 0076            __end_of_Lcd_Cmd 02CD  
                    ??_ISR 0070                      ?_main 0070                      _ANSEL 0188  
                    i1l971 01CD                      i1l981 01DB                      i1l973 01D1  
                    i1l991 01ED                      i1l983 01DD                      i1l975 01D2  
                    i1l993 01EF                      i1l985 01E1                      i1l977 01D6  
                    i1l987 01E5                      i1l979 01DA                      i1l989 01E9  
                    _RCREG 001A                      u12_20 01D1                      u12_21 01D0  
                    u13_20 01DA                      u13_21 01D9                      u14_20 01E5  
                    u14_21 01E4                      u15_20 01ED                      u15_21 01EC  
                    _SPBRG 0099                      _PORTA 0005                      _PORTB 0006  
                    _PORTC 0007                      _PORTD 0008    __size_of_Lcd_Set_Cursor 002E  
                    _TRISA 0085                      _TRISB 0086                      _TRISC 0087  
                    _TRISD 0088                      _TXREG 0019                      _Setup 022A  
          __end_of_initOsc 01CD                      pclath 000A                      status 0003  
       __size_of_USARTconf 0016                      wtemp0 007E           __end_of_Lcd_Init 02B5  
         __end_of_Lcd_Port 02FF            __initialization 0013               __end_of_main 0133  
                ??_ADCinit 0074                     ??_main 0078                     ?_Setup 0070  
                   _ADCON1 009F                     _ADRESH 001E                     _ANSELH 0189  
              initOsc@frec 0075                  ??_Lcd_Cmd 0074                     _SPBRGH 009A  
  __size_of_Lcd_Write_Char 0016                     _flag_T 0023                     _go_adc 007A  
                   _toggle 0028          __end_of_USARTconf 02E3                  ?_ADC_LEER 0070  
                ??_initOsc 0073                     saved_w 007E            Lcd_Set_Cursor@a 0029  
          Lcd_Set_Cursor@b 0077            Lcd_Set_Cursor@z 002B    __end_of__initialization 0021  
           __pcstackCOMMON 0070              __end_of_Setup 0254             _Lcd_Set_Cursor 01FC  
               ??_ADC_LEER 0077                    ??_Setup 0073                  ?_Lcd_Init 0070  
                ?_Lcd_Port 0070                 __pbssBANK0 0020                 _debounce_T 0133  
               __pmaintext 00CB                 __pintentry 0004  __size_of_Lcd_Write_String 0029  
   __end_of_Lcd_Set_Cursor 022A                    _ADCinit 0025                 ??_Lcd_Init 0077  
               ??_Lcd_Port 0073                 __stringtab 027D             _Lcd_Write_Char 02E3  
                  _Lcd_Cmd 02B5                 ADCinit@vel 0076                  _ANSELbits 0188  
                  _lec_ADC 0079                    _flag_T2 0022            ?_Lcd_Set_Cursor 0077  
                  __ptext1 019E                    __ptext2 0133                    __ptext3 02CD  
                  __ptext4 022A                    __ptext5 0254                    __ptext6 02E3  
                  __ptext7 01FC                    __ptext8 029C                    __ptext9 02B5  
             __size_of_ISR 002F                    _estado1 0021                    _initOsc 019E  
                  _valor_e 0026                    _valor_r 0027     __end_of_Lcd_Write_Char 02F9  
     end_of_initialization 0021                ?_debounce_T 0070                  _RCSTAbits 0018  
                Lcd_Port@a 0073                  _PORTBbits 0006                  _USARTconf 02CD  
        __size_of_ADC_LEER 0034            ?_Lcd_Write_Char 0070          Lcd_Write_String@a 002B  
        Lcd_Write_String@i 0029                  _TXSTAbits 0098           _Lcd_Write_String 0254  
              _BAUDCTLbits 0187        __size_of_debounce_T 0037        start_initialization 0013  
              __end_of_ISR 01FC                 ?_USARTconf 0070          __size_of_Lcd_Init 0019  
        __size_of_Lcd_Port 0006            Lcd_Write_Char@a 0075                   ?_ADCinit 0073  
              __pbssCOMMON 0078                  ___latbits 0002              __pcstackBANK0 0029  
                 ?_Lcd_Cmd 0070           ??_Lcd_Set_Cursor 0078                  __pstrings 027D  
                 _ADC_LEER 016A                   ?_initOsc 0070                ??_USARTconf 0073  
           __size_of_Setup 002A          interrupt_function 0004               ??_debounce_T 0073  
                 _PIE1bits 008C                   Lcd_Cmd@a 0076                   _PIR1bits 000C  
               _ADCON0bits 001F                __stringbase 0282           __size_of_ADCinit 00A6  
         ??_Lcd_Write_Char 0074         __end_of_debounce_T 016A                   _Lcd_Init 029C  
                 _Lcd_Port 02F9   __end_of_Lcd_Write_String 027D           __size_of_Lcd_Cmd 0018  
              ADCinit@chan 0073         __end_of__stringtab 0283           __size_of_initOsc 002F  
                 __ptext10 02F9                   __ptext11 016A                   __ptext12 0025  
                 __ptext13 01CD              __size_of_main 0068                   _terminal 0078  
               _INTCONbits 000B                   intlevel1 0000                  stringcode 027D  
               _OSCCONbits 008F         Lcd_Set_Cursor@temp 002A                 _OPTION_REG 0081  
                 stringdir 027D                   stringtab 027D  
