

Microchip MPLAB XC8 Assembler V2.20 build 20200408173844 
                                                                                               Wed Mar 03 01:49:12 2021

Microchip MPLAB XC8 C Compiler v2.20 (Free license) build 20200408173844 Og1 
     1                           	processor	16F887
     2                           	pagewidth 120
     3                           	opt	flic
     4                           	psect	cinit,global,class=CODE,merge=1,delta=2
     5                           	psect	bssCOMMON,global,class=COMMON,space=1,delta=1,noexec
     6                           	psect	bssBANK0,global,class=BANK0,space=1,delta=1,noexec
     7                           	psect	clrtext,global,class=CODE,delta=2
     8                           	psect	cstackCOMMON,global,class=COMMON,space=1,delta=1,noexec
     9                           	psect	cstackBANK0,global,class=BANK0,space=1,delta=1,noexec
    10                           	psect	maintext,global,class=CODE,split=1,delta=2
    11                           	psect	text1,local,class=CODE,merge=1,delta=2
    12                           	psect	text2,local,class=CODE,merge=1,delta=2
    13                           	psect	text3,local,class=CODE,merge=1,delta=2
    14                           	psect	text4,local,class=CODE,merge=1,delta=2
    15                           	psect	text5,local,class=CODE,merge=1,delta=2
    16                           	psect	text6,local,class=CODE,merge=1,delta=2
    17                           	psect	text7,local,class=CODE,merge=1,delta=2
    18                           	psect	text8,local,class=CODE,merge=1,delta=2
    19                           	psect	text9,local,class=CODE,merge=1,delta=2
    20                           	psect	text10,local,class=CODE,merge=1,delta=2
    21                           	psect	text11,local,class=CODE,merge=1,delta=2
    22                           	psect	text12,local,class=CODE,merge=1,delta=2
    23                           	psect	text13,local,class=CODE,merge=1,delta=2,group=1
    24                           	psect	text14,local,class=CODE,merge=1,delta=2
    25                           	psect	intentry,global,class=CODE,delta=2
    26                           	psect	text15,local,class=CODE,merge=1,delta=2
    27                           	psect	config,global,abs,ovrld,class=CONFIG,space=4,delta=2,noexec
    28                           	dabs	1,0x7E,2
    29  0000                     
    30                           ; Version 2.20
    31                           ; Generated 09/04/2020 GMT
    32                           ; 
    33                           ; Copyright © 2020, Microchip Technology Inc. and its subsidiaries ("Microchip")
    34                           ; All rights reserved.
    35                           ; 
    36                           ; This software is developed by Microchip Technology Inc. and its subsidiaries ("Microch
      +                          ip").
    37                           ; 
    38                           ; Redistribution and use in source and binary forms, with or without modification, are
    39                           ; permitted provided that the following conditions are met:
    40                           ; 
    41                           ;     1. Redistributions of source code must retain the above copyright notice, this lis
      +                          t of
    42                           ;        conditions and the following disclaimer.
    43                           ; 
    44                           ;     2. Redistributions in binary form must reproduce the above copyright notice, this 
      +                          list
    45                           ;        of conditions and the following disclaimer in the documentation and/or other
    46                           ;        materials provided with the distribution.
    47                           ; 
    48                           ;     3. Microchip's name may not be used to endorse or promote products derived from th
      +                          is
    49                           ;        software without specific prior written permission.
    50                           ; 
    51                           ; THIS SOFTWARE IS PROVIDED BY MICROCHIP "AS IS" AND ANY EXPRESS OR IMPLIED WARRANTIES,
    52                           ; INCLUDING, BUT NOT LIMITED TO, THE IMPLIED WARRANTIES OF MERCHANTABILITY AND FITNESS F
      +                          OR
    53                           ; PURPOSE ARE DISCLAIMED.  IN NO EVENT SHALL MICROCHIP BE LIABLE FOR ANY DIRECT, INDIREC
      +                          T,
    54                           ; INCIDENTAL, SPECIAL, EXEMPLARY, OR CONSEQUENTIAL DAMAGES (INCLUDING BUT NOT LIMITED TO
    55                           ; PROCUREMENT OF SUBSTITUTE GOODS OR SERVICES; LOSS OF USE, DATA OR PROFITS; OR BUSINESS
    56                           ; INTERRUPTION) HOWSOEVER CAUSED AND ON ANY THEORY OF LIABILITY, WHETHER IN CONTRACT, ST
      +                          RICT
    57                           ; LIABILITY, OR TORT (INCLUDING NEGLIGENCE OR OTHERWISE) ARISING IN ANY WAY OUT OF THE U
      +                          SE OF
    58                           ; THIS SOFTWARE, EVEN IF ADVISED OF THE POSSIBILITY OF SUCH DAMAGE.
    59                           ; 
    60                           ; 
    61                           ; Code-generator required, PIC16F887 Definitions
    62                           ; 
    63                           ; SFR Addresses
    64  0000                     	;# 
    65  0001                     	;# 
    66  0002                     	;# 
    67  0003                     	;# 
    68  0004                     	;# 
    69  0005                     	;# 
    70  0006                     	;# 
    71  0007                     	;# 
    72  0008                     	;# 
    73  0009                     	;# 
    74  000A                     	;# 
    75  000B                     	;# 
    76  000C                     	;# 
    77  000D                     	;# 
    78  000E                     	;# 
    79  000E                     	;# 
    80  000F                     	;# 
    81  0010                     	;# 
    82  0011                     	;# 
    83  0012                     	;# 
    84  0013                     	;# 
    85  0014                     	;# 
    86  0015                     	;# 
    87  0015                     	;# 
    88  0016                     	;# 
    89  0017                     	;# 
    90  0018                     	;# 
    91  0019                     	;# 
    92  001A                     	;# 
    93  001B                     	;# 
    94  001B                     	;# 
    95  001C                     	;# 
    96  001D                     	;# 
    97  001E                     	;# 
    98  001F                     	;# 
    99  0081                     	;# 
   100  0085                     	;# 
   101  0086                     	;# 
   102  0087                     	;# 
   103  0088                     	;# 
   104  0089                     	;# 
   105  008C                     	;# 
   106  008D                     	;# 
   107  008E                     	;# 
   108  008F                     	;# 
   109  0090                     	;# 
   110  0091                     	;# 
   111  0092                     	;# 
   112  0093                     	;# 
   113  0093                     	;# 
   114  0093                     	;# 
   115  0094                     	;# 
   116  0095                     	;# 
   117  0096                     	;# 
   118  0097                     	;# 
   119  0098                     	;# 
   120  0099                     	;# 
   121  009A                     	;# 
   122  009B                     	;# 
   123  009C                     	;# 
   124  009D                     	;# 
   125  009E                     	;# 
   126  009F                     	;# 
   127  0105                     	;# 
   128  0107                     	;# 
   129  0108                     	;# 
   130  0109                     	;# 
   131  010C                     	;# 
   132  010C                     	;# 
   133  010D                     	;# 
   134  010E                     	;# 
   135  010F                     	;# 
   136  0185                     	;# 
   137  0187                     	;# 
   138  0188                     	;# 
   139  0189                     	;# 
   140  018C                     	;# 
   141  018D                     	;# 
   142  0000                     	;# 
   143  0001                     	;# 
   144  0002                     	;# 
   145  0003                     	;# 
   146  0004                     	;# 
   147  0005                     	;# 
   148  0006                     	;# 
   149  0007                     	;# 
   150  0008                     	;# 
   151  0009                     	;# 
   152  000A                     	;# 
   153  000B                     	;# 
   154  000C                     	;# 
   155  000D                     	;# 
   156  000E                     	;# 
   157  000E                     	;# 
   158  000F                     	;# 
   159  0010                     	;# 
   160  0011                     	;# 
   161  0012                     	;# 
   162  0013                     	;# 
   163  0014                     	;# 
   164  0015                     	;# 
   165  0015                     	;# 
   166  0016                     	;# 
   167  0017                     	;# 
   168  0018                     	;# 
   169  0019                     	;# 
   170  001A                     	;# 
   171  001B                     	;# 
   172  001B                     	;# 
   173  001C                     	;# 
   174  001D                     	;# 
   175  001E                     	;# 
   176  001F                     	;# 
   177  0081                     	;# 
   178  0085                     	;# 
   179  0086                     	;# 
   180  0087                     	;# 
   181  0088                     	;# 
   182  0089                     	;# 
   183  008C                     	;# 
   184  008D                     	;# 
   185  008E                     	;# 
   186  008F                     	;# 
   187  0090                     	;# 
   188  0091                     	;# 
   189  0092                     	;# 
   190  0093                     	;# 
   191  0093                     	;# 
   192  0093                     	;# 
   193  0094                     	;# 
   194  0095                     	;# 
   195  0096                     	;# 
   196  0097                     	;# 
   197  0098                     	;# 
   198  0099                     	;# 
   199  009A                     	;# 
   200  009B                     	;# 
   201  009C                     	;# 
   202  009D                     	;# 
   203  009E                     	;# 
   204  009F                     	;# 
   205  0105                     	;# 
   206  0107                     	;# 
   207  0108                     	;# 
   208  0109                     	;# 
   209  010C                     	;# 
   210  010C                     	;# 
   211  010D                     	;# 
   212  010E                     	;# 
   213  010F                     	;# 
   214  0185                     	;# 
   215  0187                     	;# 
   216  0188                     	;# 
   217  0189                     	;# 
   218  018C                     	;# 
   219  018D                     	;# 
   220  0000                     	;# 
   221  0001                     	;# 
   222  0002                     	;# 
   223  0003                     	;# 
   224  0004                     	;# 
   225  0005                     	;# 
   226  0006                     	;# 
   227  0007                     	;# 
   228  0008                     	;# 
   229  0009                     	;# 
   230  000A                     	;# 
   231  000B                     	;# 
   232  000C                     	;# 
   233  000D                     	;# 
   234  000E                     	;# 
   235  000E                     	;# 
   236  000F                     	;# 
   237  0010                     	;# 
   238  0011                     	;# 
   239  0012                     	;# 
   240  0013                     	;# 
   241  0014                     	;# 
   242  0015                     	;# 
   243  0015                     	;# 
   244  0016                     	;# 
   245  0017                     	;# 
   246  0018                     	;# 
   247  0019                     	;# 
   248  001A                     	;# 
   249  001B                     	;# 
   250  001B                     	;# 
   251  001C                     	;# 
   252  001D                     	;# 
   253  001E                     	;# 
   254  001F                     	;# 
   255  0081                     	;# 
   256  0085                     	;# 
   257  0086                     	;# 
   258  0087                     	;# 
   259  0088                     	;# 
   260  0089                     	;# 
   261  008C                     	;# 
   262  008D                     	;# 
   263  008E                     	;# 
   264  008F                     	;# 
   265  0090                     	;# 
   266  0091                     	;# 
   267  0092                     	;# 
   268  0093                     	;# 
   269  0093                     	;# 
   270  0093                     	;# 
   271  0094                     	;# 
   272  0095                     	;# 
   273  0096                     	;# 
   274  0097                     	;# 
   275  0098                     	;# 
   276  0099                     	;# 
   277  009A                     	;# 
   278  009B                     	;# 
   279  009C                     	;# 
   280  009D                     	;# 
   281  009E                     	;# 
   282  009F                     	;# 
   283  0105                     	;# 
   284  0107                     	;# 
   285  0108                     	;# 
   286  0109                     	;# 
   287  010C                     	;# 
   288  010C                     	;# 
   289  010D                     	;# 
   290  010E                     	;# 
   291  010F                     	;# 
   292  0185                     	;# 
   293  0187                     	;# 
   294  0188                     	;# 
   295  0189                     	;# 
   296  018C                     	;# 
   297  018D                     	;# 
   298  0000                     	;# 
   299  0001                     	;# 
   300  0002                     	;# 
   301  0003                     	;# 
   302  0004                     	;# 
   303  0005                     	;# 
   304  0006                     	;# 
   305  0007                     	;# 
   306  0008                     	;# 
   307  0009                     	;# 
   308  000A                     	;# 
   309  000B                     	;# 
   310  000C                     	;# 
   311  000D                     	;# 
   312  000E                     	;# 
   313  000E                     	;# 
   314  000F                     	;# 
   315  0010                     	;# 
   316  0011                     	;# 
   317  0012                     	;# 
   318  0013                     	;# 
   319  0014                     	;# 
   320  0015                     	;# 
   321  0015                     	;# 
   322  0016                     	;# 
   323  0017                     	;# 
   324  0018                     	;# 
   325  0019                     	;# 
   326  001A                     	;# 
   327  001B                     	;# 
   328  001B                     	;# 
   329  001C                     	;# 
   330  001D                     	;# 
   331  001E                     	;# 
   332  001F                     	;# 
   333  0081                     	;# 
   334  0085                     	;# 
   335  0086                     	;# 
   336  0087                     	;# 
   337  0088                     	;# 
   338  0089                     	;# 
   339  008C                     	;# 
   340  008D                     	;# 
   341  008E                     	;# 
   342  008F                     	;# 
   343  0090                     	;# 
   344  0091                     	;# 
   345  0092                     	;# 
   346  0093                     	;# 
   347  0093                     	;# 
   348  0093                     	;# 
   349  0094                     	;# 
   350  0095                     	;# 
   351  0096                     	;# 
   352  0097                     	;# 
   353  0098                     	;# 
   354  0099                     	;# 
   355  009A                     	;# 
   356  009B                     	;# 
   357  009C                     	;# 
   358  009D                     	;# 
   359  009E                     	;# 
   360  009F                     	;# 
   361  0105                     	;# 
   362  0107                     	;# 
   363  0108                     	;# 
   364  0109                     	;# 
   365  010C                     	;# 
   366  010C                     	;# 
   367  010D                     	;# 
   368  010E                     	;# 
   369  010F                     	;# 
   370  0185                     	;# 
   371  0187                     	;# 
   372  0188                     	;# 
   373  0189                     	;# 
   374  018C                     	;# 
   375  018D                     	;# 
   376  0000                     	;# 
   377  0001                     	;# 
   378  0002                     	;# 
   379  0003                     	;# 
   380  0004                     	;# 
   381  0005                     	;# 
   382  0006                     	;# 
   383  0007                     	;# 
   384  0008                     	;# 
   385  0009                     	;# 
   386  000A                     	;# 
   387  000B                     	;# 
   388  000C                     	;# 
   389  000D                     	;# 
   390  000E                     	;# 
   391  000E                     	;# 
   392  000F                     	;# 
   393  0010                     	;# 
   394  0011                     	;# 
   395  0012                     	;# 
   396  0013                     	;# 
   397  0014                     	;# 
   398  0015                     	;# 
   399  0015                     	;# 
   400  0016                     	;# 
   401  0017                     	;# 
   402  0018                     	;# 
   403  0019                     	;# 
   404  001A                     	;# 
   405  001B                     	;# 
   406  001B                     	;# 
   407  001C                     	;# 
   408  001D                     	;# 
   409  001E                     	;# 
   410  001F                     	;# 
   411  0081                     	;# 
   412  0085                     	;# 
   413  0086                     	;# 
   414  0087                     	;# 
   415  0088                     	;# 
   416  0089                     	;# 
   417  008C                     	;# 
   418  008D                     	;# 
   419  008E                     	;# 
   420  008F                     	;# 
   421  0090                     	;# 
   422  0091                     	;# 
   423  0092                     	;# 
   424  0093                     	;# 
   425  0093                     	;# 
   426  0093                     	;# 
   427  0094                     	;# 
   428  0095                     	;# 
   429  0096                     	;# 
   430  0097                     	;# 
   431  0098                     	;# 
   432  0099                     	;# 
   433  009A                     	;# 
   434  009B                     	;# 
   435  009C                     	;# 
   436  009D                     	;# 
   437  009E                     	;# 
   438  009F                     	;# 
   439  0105                     	;# 
   440  0107                     	;# 
   441  0108                     	;# 
   442  0109                     	;# 
   443  010C                     	;# 
   444  010C                     	;# 
   445  010D                     	;# 
   446  010E                     	;# 
   447  010F                     	;# 
   448  0185                     	;# 
   449  0187                     	;# 
   450  0188                     	;# 
   451  0189                     	;# 
   452  018C                     	;# 
   453  018D                     	;# 
   454  0000                     	;# 
   455  0001                     	;# 
   456  0002                     	;# 
   457  0003                     	;# 
   458  0004                     	;# 
   459  0005                     	;# 
   460  0006                     	;# 
   461  0007                     	;# 
   462  0008                     	;# 
   463  0009                     	;# 
   464  000A                     	;# 
   465  000B                     	;# 
   466  000C                     	;# 
   467  000D                     	;# 
   468  000E                     	;# 
   469  000E                     	;# 
   470  000F                     	;# 
   471  0010                     	;# 
   472  0011                     	;# 
   473  0012                     	;# 
   474  0013                     	;# 
   475  0014                     	;# 
   476  0015                     	;# 
   477  0015                     	;# 
   478  0016                     	;# 
   479  0017                     	;# 
   480  0018                     	;# 
   481  0019                     	;# 
   482  001A                     	;# 
   483  001B                     	;# 
   484  001B                     	;# 
   485  001C                     	;# 
   486  001D                     	;# 
   487  001E                     	;# 
   488  001F                     	;# 
   489  0081                     	;# 
   490  0085                     	;# 
   491  0086                     	;# 
   492  0087                     	;# 
   493  0088                     	;# 
   494  0089                     	;# 
   495  008C                     	;# 
   496  008D                     	;# 
   497  008E                     	;# 
   498  008F                     	;# 
   499  0090                     	;# 
   500  0091                     	;# 
   501  0092                     	;# 
   502  0093                     	;# 
   503  0093                     	;# 
   504  0093                     	;# 
   505  0094                     	;# 
   506  0095                     	;# 
   507  0096                     	;# 
   508  0097                     	;# 
   509  0098                     	;# 
   510  0099                     	;# 
   511  009A                     	;# 
   512  009B                     	;# 
   513  009C                     	;# 
   514  009D                     	;# 
   515  009E                     	;# 
   516  009F                     	;# 
   517  0105                     	;# 
   518  0107                     	;# 
   519  0108                     	;# 
   520  0109                     	;# 
   521  010C                     	;# 
   522  010C                     	;# 
   523  010D                     	;# 
   524  010E                     	;# 
   525  010F                     	;# 
   526  0185                     	;# 
   527  0187                     	;# 
   528  0188                     	;# 
   529  0189                     	;# 
   530  018C                     	;# 
   531  018D                     	;# 
   532  0018                     _RCSTAbits	set	24
   533  0013                     _SSPBUF	set	19
   534  0014                     _SSPCON	set	20
   535  0019                     _TXREG	set	25
   536  0005                     _PORTA	set	5
   537  0006                     _PORTB	set	6
   538  001A                     _RCREG	set	26
   539  0001                     _TMR0	set	1
   540  000B                     _INTCONbits	set	11
   541  000C                     _PIR1bits	set	12
   542  0063                     _SSPIF	set	99
   543  005E                     _PEIE	set	94
   544  005F                     _GIE	set	95
   545  0099                     _SPBRG	set	153
   546  009A                     _SPBRGH	set	154
   547  0098                     _TXSTAbits	set	152
   548  008F                     _OSCCONbits	set	143
   549  0091                     _SSPCON2bits	set	145
   550  0087                     _TRISCbits	set	135
   551  0094                     _SSPSTAT	set	148
   552  0093                     _SSPADD	set	147
   553  0091                     _SSPCON2	set	145
   554  0081                     _OPTION_REG	set	129
   555  0087                     _TRISC	set	135
   556  0086                     _TRISB	set	134
   557  008C                     _PIE1bits	set	140
   558  0463                     _SSPIE	set	1123
   559  043C                     _TRISC4	set	1084
   560  043B                     _TRISC3	set	1083
   561  0187                     _BAUDCTLbits	set	391
   562  0189                     _ANSELH	set	393
   563  0188                     _ANSEL	set	392
   564                           
   565                           	psect	cinit
   566  0015                     start_initialization:	
   567                           ; #config settings
   568                           
   569  0015                     __initialization:
   570                           
   571                           ; Clear objects allocated to COMMON
   572  0015  01F0               	clrf	__pbssCOMMON& (0+127)
   573  0016  01F1               	clrf	(__pbssCOMMON+1)& (0+127)
   574  0017  01F2               	clrf	(__pbssCOMMON+2)& (0+127)
   575  0018  01F3               	clrf	(__pbssCOMMON+3)& (0+127)
   576  0019  01F4               	clrf	(__pbssCOMMON+4)& (0+127)
   577  001A  01F5               	clrf	(__pbssCOMMON+5)& (0+127)
   578                           
   579                           ; Clear objects allocated to BANK0
   580  001B  1383               	bcf	3,7	;select IRP bank0
   581  001C  3039               	movlw	low __pbssBANK0
   582  001D  0084               	movwf	4
   583  001E  304A               	movlw	low (__pbssBANK0+17)
   584  001F  120A  118A  2432  120A  118A  	fcall	clear_ram0
   585  0024                     end_of_initialization:	
   586                           ;End of C runtime variable initialization code
   587                           
   588  0024                     __end_of__initialization:
   589  0024  0183               	clrf	3
   590  0025  120A  118A  2AA5   	ljmp	_main	;jump to C main() function
   591                           
   592                           	psect	bssCOMMON
   593  0070                     __pbssCOMMON:
   594  0070                     _dato_esp:
   595  0070                     	ds	1
   596  0071                     _mes:
   597  0071                     	ds	1
   598  0072                     _dia:
   599  0072                     	ds	1
   600  0073                     _hora:
   601  0073                     	ds	1
   602  0074                     _min:
   603  0074                     	ds	1
   604  0075                     _seg:
   605  0075                     	ds	1
   606                           
   607                           	psect	bssBANK0
   608  0039                     __pbssBANK0:
   609  0039                     _toggleTX:
   610  0039                     	ds	1
   611  003A                     _DecenasH:
   612  003A                     	ds	1
   613  003B                     _basura:
   614  003B                     	ds	1
   615  003C                     _anoU:
   616  003C                     	ds	1
   617  003D                     _anoD:
   618  003D                     	ds	1
   619  003E                     _ano:
   620  003E                     	ds	1
   621  003F                     _mesU:
   622  003F                     	ds	1
   623  0040                     _mesD:
   624  0040                     	ds	1
   625  0041                     _diaU:
   626  0041                     	ds	1
   627  0042                     _diaD:
   628  0042                     	ds	1
   629  0043                     _horaU:
   630  0043                     	ds	1
   631  0044                     _horaD:
   632  0044                     	ds	1
   633  0045                     _minU:
   634  0045                     	ds	1
   635  0046                     _minD:
   636  0046                     	ds	1
   637  0047                     _segU:
   638  0047                     	ds	1
   639  0048                     _segD:
   640  0048                     	ds	1
   641  0049                     _var:
   642  0049                     	ds	1
   643                           
   644                           	psect	clrtext
   645  0432                     clear_ram0:	
   646                           ;	Called with FSR containing the base address, and
   647                           ;	W with the last address+1
   648                           
   649  0432  0064               	clrwdt	;clear the watchdog before getting into this loop
   650  0433                     clrloop0:
   651  0433  0180               	clrf	0	;clear RAM location pointed to by FSR
   652  0434  0A84               	incf	4,f	;increment pointer
   653  0435  0604               	xorwf	4,w	;XOR with final address
   654  0436  1903               	btfsc	3,2	;have we reached the end yet?
   655  0437  3400               	retlw	0	;all done for this memory range, return
   656  0438  0604               	xorwf	4,w	;XOR again to restore value
   657  0439  2C33               	goto	clrloop0	;do the next byte
   658                           
   659                           	psect	cstackCOMMON
   660  0076                     __pcstackCOMMON:
   661  0076                     ?_envio:
   662  0076                     ??_envio:	
   663                           ; 1 bytes @ 0x0
   664                           
   665  0076                     ?_initOsc:	
   666                           ; 1 bytes @ 0x0
   667                           
   668  0076                     ?_Setup:	
   669                           ; 1 bytes @ 0x0
   670                           
   671  0076                     ?_USARTconf:	
   672                           ; 1 bytes @ 0x0
   673                           
   674  0076                     ?_recibir_tiempo:	
   675                           ; 1 bytes @ 0x0
   676                           
   677  0076                     ?_convertirBCD:	
   678                           ; 1 bytes @ 0x0
   679                           
   680  0076                     ?_I2C_Master_Start:	
   681                           ; 1 bytes @ 0x0
   682                           
   683  0076                     ?_I2C_Master_Stop:	
   684                           ; 1 bytes @ 0x0
   685                           
   686  0076                     ?_num_ascii:	
   687                           ; 1 bytes @ 0x0
   688                           
   689  0076                     ?_ISR:	
   690                           ; 1 bytes @ 0x0
   691                           
   692  0076                     ?_main:	
   693                           ; 1 bytes @ 0x0
   694                           
   695  0076                     ?_I2C_Master_Wait:	
   696                           ; 1 bytes @ 0x0
   697                           
   698                           
   699                           ; 1 bytes @ 0x0
   700  0076                     	ds	2
   701  0078                     ??_ISR:
   702                           
   703                           ; 1 bytes @ 0x2
   704  0078                     	ds	4
   705                           
   706                           	psect	cstackBANK0
   707  0020                     __pcstackBANK0:
   708  0020                     ??_initOsc:
   709  0020                     ??_USARTconf:	
   710                           ; 1 bytes @ 0x0
   711                           
   712  0020                     ??_I2C_Master_Start:	
   713                           ; 1 bytes @ 0x0
   714                           
   715  0020                     ?_I2C_Master_Write:	
   716                           ; 1 bytes @ 0x0
   717                           
   718  0020                     ??_I2C_Master_Stop:	
   719                           ; 1 bytes @ 0x0
   720                           
   721  0020                     ??_num_ascii:	
   722                           ; 1 bytes @ 0x0
   723                           
   724  0020                     ??_I2C_Master_Wait:	
   725                           ; 1 bytes @ 0x0
   726                           
   727  0020                     ?_I2C_Master_Read:	
   728                           ; 1 bytes @ 0x0
   729                           
   730  0020                     ?___lldiv:	
   731                           ; 2 bytes @ 0x0
   732                           
   733  0020                     I2C_Master_Write@d:	
   734                           ; 4 bytes @ 0x0
   735                           
   736  0020                     I2C_Master_Read@a:	
   737                           ; 2 bytes @ 0x0
   738                           
   739  0020                     ___lldiv@divisor:	
   740                           ; 2 bytes @ 0x0
   741                           
   742                           
   743                           ; 4 bytes @ 0x0
   744  0020                     	ds	2
   745  0022                     ??_I2C_Master_Write:
   746  0022                     ??_I2C_Master_Read:	
   747                           ; 1 bytes @ 0x2
   748                           
   749  0022                     initOsc@frec:	
   750                           ; 1 bytes @ 0x2
   751                           
   752  0022                     num_ascii@num:	
   753                           ; 1 bytes @ 0x2
   754                           
   755                           
   756                           ; 1 bytes @ 0x2
   757  0022                     	ds	1
   758  0023                     ??_convertirBCD:
   759                           
   760                           ; 1 bytes @ 0x3
   761  0023                     	ds	1
   762  0024                     I2C_Master_Read@temp:
   763  0024                     ___lldiv@dividend:	
   764                           ; 2 bytes @ 0x4
   765                           
   766                           
   767                           ; 4 bytes @ 0x4
   768  0024                     	ds	2
   769  0026                     ??_recibir_tiempo:
   770                           
   771                           ; 1 bytes @ 0x6
   772  0026                     	ds	2
   773  0028                     ??___lldiv:
   774                           
   775                           ; 1 bytes @ 0x8
   776  0028                     	ds	1
   777  0029                     ___lldiv@quotient:
   778                           
   779                           ; 4 bytes @ 0x9
   780  0029                     	ds	4
   781  002D                     ___lldiv@counter:
   782                           
   783                           ; 1 bytes @ 0xD
   784  002D                     	ds	1
   785  002E                     ?_I2C_Master_Init:
   786  002E                     I2C_Master_Init@c:	
   787                           ; 1 bytes @ 0xE
   788                           
   789                           
   790                           ; 4 bytes @ 0xE
   791  002E                     	ds	4
   792  0032                     ??_I2C_Master_Init:
   793                           
   794                           ; 1 bytes @ 0x12
   795  0032                     	ds	4
   796  0036                     ??_Setup:
   797  0036                     ??_main:	
   798                           ; 1 bytes @ 0x16
   799                           
   800                           
   801                           ; 1 bytes @ 0x16
   802  0036                     	ds	3
   803                           
   804                           	psect	maintext
   805  02A5                     __pmaintext:	
   806 ;;
   807 ;;Main: autosize = 0, tempsize = 3, incstack = 0, save=0
   808 ;;
   809 ;; *************** function _main *****************
   810 ;; Defined at:
   811 ;;		line 109 in file "C:/Users/Carlo/OneDrive/Documentos/Quinto Semestre/Digital2/Proyecto2/I2CPJ2.X/main.c"
   812 ;; Parameters:    Size  Location     Type
   813 ;;		None
   814 ;; Auto vars:     Size  Location     Type
   815 ;;		None
   816 ;; Return value:  Size  Location     Type
   817 ;;                  1    wreg      void 
   818 ;; Registers used:
   819 ;;		wreg, fsr0l, fsr0h, status,2, status,0, btemp+1, pclath, cstack
   820 ;; Tracked objects:
   821 ;;		On entry : B00/0
   822 ;;		On exit  : 0/0
   823 ;;		Unchanged: 0/0
   824 ;; Data sizes:     COMMON   BANK0   BANK1   BANK3   BANK2
   825 ;;      Params:         0       0       0       0       0
   826 ;;      Locals:         0       0       0       0       0
   827 ;;      Temps:          0       3       0       0       0
   828 ;;      Totals:         0       3       0       0       0
   829 ;;Total ram usage:        3 bytes
   830 ;; Hardware stack levels required when called:    5
   831 ;; This function calls:
   832 ;;		_Setup
   833 ;;		_USARTconf
   834 ;;		_convertirBCD
   835 ;;		_initOsc
   836 ;;		_recibir_tiempo
   837 ;; This function is called by:
   838 ;;		Startup code after reset
   839 ;; This function uses a non-reentrant model
   840 ;;
   841                           
   842                           
   843                           ;psect for function _main
   844  02A5                     _main:
   845  02A5                     l1830:	
   846                           ;incstack = 0
   847                           ; Regs used in _main: [wreg-fsr0h+status,2+status,0+btemp+1+pclath+cstack]
   848                           
   849                           
   850                           ;C:/Users/Carlo/OneDrive/Documentos/Quinto Semestre/Digital2/Proyecto2/I2CPJ2.X/main.c: 
      +                          110: }
   851  02A5  3014               	movlw	20
   852  02A6  120A  118A  2396  120A  118A  	fcall	_initOsc
   853  02AB                     l1832:
   854                           
   855                           ;C:/Users/Carlo/OneDrive/Documentos/Quinto Semestre/Digital2/Proyecto2/I2CPJ2.X/main.c: 
      +                          111: 
   856  02AB  120A  118A  23C7  120A  118A  	fcall	_Setup
   857  02B0                     l1834:
   858                           
   859                           ;C:/Users/Carlo/OneDrive/Documentos/Quinto Semestre/Digital2/Proyecto2/I2CPJ2.X/main.c: 
      +                          112: 
   860  02B0  120A  118A  23F3  120A  118A  	fcall	_USARTconf
   861  02B5                     l1836:
   862                           
   863                           ;C:/Users/Carlo/OneDrive/Documentos/Quinto Semestre/Digital2/Proyecto2/I2CPJ2.X/main.c: 
      +                          116:     I2C_Master_Write(0xD0);
   864  02B5  120A  118A  20E9  120A  118A  	fcall	_recibir_tiempo
   865  02BA                     l1838:
   866                           
   867                           ;C:/Users/Carlo/OneDrive/Documentos/Quinto Semestre/Digital2/Proyecto2/I2CPJ2.X/main.c: 
      +                          117:     I2C_Master_Write(0);
   868  02BA  3002               	movlw	2
   869  02BB  1283               	bcf	3,5	;RP0=0, select bank0
   870  02BC  1303               	bcf	3,6	;RP1=0, select bank0
   871  02BD  00B8               	movwf	??_main+2
   872  02BE  3004               	movlw	4
   873  02BF  00B7               	movwf	??_main+1
   874  02C0  30B9               	movlw	185
   875  02C1  00B6               	movwf	??_main
   876  02C2                     u687:
   877  02C2  0BB6               	decfsz	??_main,f
   878  02C3  2AC2               	goto	u687
   879  02C4  0BB7               	decfsz	??_main+1,f
   880  02C5  2AC2               	goto	u687
   881  02C6  0BB8               	decfsz	??_main+2,f
   882  02C7  2AC2               	goto	u687
   883  02C8  2AC9               	nop2
   884  02C9                     l1840:
   885                           
   886                           ;C:/Users/Carlo/OneDrive/Documentos/Quinto Semestre/Digital2/Proyecto2/I2CPJ2.X/main.c: 
      +                          118:     I2C_Master_Write(0b00000000);
   887  02C9  120A  118A  2028  120A  118A  	fcall	_convertirBCD
   888  02CE                     l1842:
   889                           
   890                           ;C:/Users/Carlo/OneDrive/Documentos/Quinto Semestre/Digital2/Proyecto2/I2CPJ2.X/main.c: 
      +                          120:     I2C_Master_Write(0x01);
   891  02CE  0370               	decf	_dato_esp,w
   892  02CF  1D03               	btfss	3,2
   893  02D0  2AD2               	goto	u661
   894  02D1  2AD3               	goto	u660
   895  02D2                     u661:
   896  02D2  2ADA               	goto	l1848
   897  02D3                     u660:
   898  02D3                     l1844:
   899                           
   900                           ;C:/Users/Carlo/OneDrive/Documentos/Quinto Semestre/Digital2/Proyecto2/I2CPJ2.X/main.c: 
      +                          121:     I2C_Master_Write(1);
   901  02D3  3001               	movlw	1
   902  02D4  1283               	bcf	3,5	;RP0=0, select bank0
   903  02D5  1303               	bcf	3,6	;RP1=0, select bank0
   904  02D6  0086               	movwf	6	;volatile
   905  02D7                     l1846:
   906                           
   907                           ;C:/Users/Carlo/OneDrive/Documentos/Quinto Semestre/Digital2/Proyecto2/I2CPJ2.X/main.c: 
      +                          122:     I2C_Master_Write(0x1);
   908  02D7  1683               	bsf	3,5	;RP0=1, select bank1
   909  02D8  1303               	bcf	3,6	;RP1=0, select bank1
   910  02D9  160C               	bsf	12,4	;volatile
   911  02DA                     l1848:
   912                           
   913                           ;C:/Users/Carlo/OneDrive/Documentos/Quinto Semestre/Digital2/Proyecto2/I2CPJ2.X/main.c: 
      +                          124:     I2C_Master_Write(0x21);
   914  02DA  0870               	movf	_dato_esp,w
   915  02DB  1D03               	btfss	3,2
   916  02DC  2ADE               	goto	u671
   917  02DD  2ADF               	goto	u670
   918  02DE                     u671:
   919  02DE  2AB5               	goto	l1836
   920  02DF                     u670:
   921  02DF                     l1850:
   922                           
   923                           ;C:/Users/Carlo/OneDrive/Documentos/Quinto Semestre/Digital2/Proyecto2/I2CPJ2.X/main.c: 
      +                          125:     I2C_Master_Stop();
   924  02DF  1283               	bcf	3,5	;RP0=0, select bank0
   925  02E0  1303               	bcf	3,6	;RP1=0, select bank0
   926  02E1  0186               	clrf	6	;volatile
   927  02E2                     l1852:
   928                           
   929                           ;C:/Users/Carlo/OneDrive/Documentos/Quinto Semestre/Digital2/Proyecto2/I2CPJ2.X/main.c: 
      +                          126: 
   930  02E2  1683               	bsf	3,5	;RP0=1, select bank1
   931  02E3  1303               	bcf	3,6	;RP1=0, select bank1
   932  02E4  120C               	bcf	12,4	;volatile
   933  02E5  2AB5               	goto	l1836
   934  02E6  120A  118A  2812   	ljmp	start
   935  02E9                     __end_of_main:
   936                           
   937                           	psect	text1
   938  00E9                     __ptext1:	
   939 ;; *************** function _recibir_tiempo *****************
   940 ;; Defined at:
   941 ;;		line 174 in file "C:/Users/Carlo/OneDrive/Documentos/Quinto Semestre/Digital2/Proyecto2/I2CPJ2.X/main.c"
   942 ;; Parameters:    Size  Location     Type
   943 ;;		None
   944 ;; Auto vars:     Size  Location     Type
   945 ;;		None
   946 ;; Return value:  Size  Location     Type
   947 ;;                  1    wreg      void 
   948 ;; Registers used:
   949 ;;		wreg, status,2, status,0, btemp+1, pclath, cstack
   950 ;; Tracked objects:
   951 ;;		On entry : 0/0
   952 ;;		On exit  : 0/0
   953 ;;		Unchanged: 0/0
   954 ;; Data sizes:     COMMON   BANK0   BANK1   BANK3   BANK2
   955 ;;      Params:         0       0       0       0       0
   956 ;;      Locals:         0       0       0       0       0
   957 ;;      Temps:          0       0       0       0       0
   958 ;;      Totals:         0       0       0       0       0
   959 ;;Total ram usage:        0 bytes
   960 ;; Hardware stack levels used:    1
   961 ;; Hardware stack levels required when called:    4
   962 ;; This function calls:
   963 ;;		_I2C_Master_Read
   964 ;;		_I2C_Master_Start
   965 ;;		_I2C_Master_Stop
   966 ;;		_I2C_Master_Write
   967 ;; This function is called by:
   968 ;;		_main
   969 ;; This function uses a non-reentrant model
   970 ;;
   971                           
   972                           
   973                           ;psect for function _recibir_tiempo
   974  00E9                     _recibir_tiempo:
   975  00E9                     l1810:	
   976                           ;incstack = 0
   977                           ; Regs used in _recibir_tiempo: [wreg+status,2+status,0+btemp+1+pclath+cstack]
   978                           
   979                           
   980                           ;C:/Users/Carlo/OneDrive/Documentos/Quinto Semestre/Digital2/Proyecto2/I2CPJ2.X/main.c: 
      +                          175:             break;
   981  00E9  120A  118A  2429  120A  118A  	fcall	_I2C_Master_Start
   982                           
   983                           ;C:/Users/Carlo/OneDrive/Documentos/Quinto Semestre/Digital2/Proyecto2/I2CPJ2.X/main.c: 
      +                          176:         case 3:
   984  00EE  30D0               	movlw	208
   985  00EF  1283               	bcf	3,5	;RP0=0, select bank0
   986  00F0  1303               	bcf	3,6	;RP1=0, select bank0
   987  00F1  00A0               	movwf	I2C_Master_Write@d
   988  00F2  3000               	movlw	0
   989  00F3  00A1               	movwf	I2C_Master_Write@d+1
   990  00F4  120A  118A  2416  120A  118A  	fcall	_I2C_Master_Write
   991                           
   992                           ;C:/Users/Carlo/OneDrive/Documentos/Quinto Semestre/Digital2/Proyecto2/I2CPJ2.X/main.c: 
      +                          177:             TXREG = 47;
   993  00F9  3000               	movlw	0
   994  00FA  1283               	bcf	3,5	;RP0=0, select bank0
   995  00FB  1303               	bcf	3,6	;RP1=0, select bank0
   996  00FC  00A0               	movwf	I2C_Master_Write@d
   997  00FD  00A1               	movwf	I2C_Master_Write@d+1
   998  00FE  120A  118A  2416  120A  118A  	fcall	_I2C_Master_Write
   999                           
  1000                           ;C:/Users/Carlo/OneDrive/Documentos/Quinto Semestre/Digital2/Proyecto2/I2CPJ2.X/main.c: 
      +                          179:         case 4:
  1001  0103  120A  118A  2429  120A  118A  	fcall	_I2C_Master_Start
  1002                           
  1003                           ;C:/Users/Carlo/OneDrive/Documentos/Quinto Semestre/Digital2/Proyecto2/I2CPJ2.X/main.c: 
      +                          180:             TXREG = mesD;
  1004  0108  30D1               	movlw	209
  1005  0109  1283               	bcf	3,5	;RP0=0, select bank0
  1006  010A  1303               	bcf	3,6	;RP1=0, select bank0
  1007  010B  00A0               	movwf	I2C_Master_Write@d
  1008  010C  3000               	movlw	0
  1009  010D  00A1               	movwf	I2C_Master_Write@d+1
  1010  010E  120A  118A  2416  120A  118A  	fcall	_I2C_Master_Write
  1011  0113                     l1812:
  1012                           
  1013                           ;C:/Users/Carlo/OneDrive/Documentos/Quinto Semestre/Digital2/Proyecto2/I2CPJ2.X/main.c: 
      +                          181:             break;
  1014  0113  3001               	movlw	1
  1015  0114  1283               	bcf	3,5	;RP0=0, select bank0
  1016  0115  1303               	bcf	3,6	;RP1=0, select bank0
  1017  0116  00A0               	movwf	I2C_Master_Read@a
  1018  0117  3000               	movlw	0
  1019  0118  00A1               	movwf	I2C_Master_Read@a+1
  1020  0119  120A  118A  2364  120A  118A  	fcall	_I2C_Master_Read
  1021  011E  1283               	bcf	3,5	;RP0=0, select bank0
  1022  011F  1303               	bcf	3,6	;RP1=0, select bank0
  1023  0120  0820               	movf	?_I2C_Master_Read,w
  1024  0121  00FF               	movwf	btemp+1
  1025  0122  087F               	movf	btemp+1,w
  1026  0123  00F5               	movwf	_seg
  1027  0124                     l1814:
  1028                           
  1029                           ;C:/Users/Carlo/OneDrive/Documentos/Quinto Semestre/Digital2/Proyecto2/I2CPJ2.X/main.c: 
      +                          182:         case 5:
  1030  0124  3001               	movlw	1
  1031  0125  00A0               	movwf	I2C_Master_Read@a
  1032  0126  3000               	movlw	0
  1033  0127  00A1               	movwf	I2C_Master_Read@a+1
  1034  0128  120A  118A  2364  120A  118A  	fcall	_I2C_Master_Read
  1035  012D  1283               	bcf	3,5	;RP0=0, select bank0
  1036  012E  1303               	bcf	3,6	;RP1=0, select bank0
  1037  012F  0820               	movf	?_I2C_Master_Read,w
  1038  0130  00FF               	movwf	btemp+1
  1039  0131  087F               	movf	btemp+1,w
  1040  0132  00F4               	movwf	_min
  1041  0133                     l1816:
  1042                           
  1043                           ;C:/Users/Carlo/OneDrive/Documentos/Quinto Semestre/Digital2/Proyecto2/I2CPJ2.X/main.c: 
      +                          183:             TXREG = mesU;
  1044  0133  3001               	movlw	1
  1045  0134  00A0               	movwf	I2C_Master_Read@a
  1046  0135  3000               	movlw	0
  1047  0136  00A1               	movwf	I2C_Master_Read@a+1
  1048  0137  120A  118A  2364  120A  118A  	fcall	_I2C_Master_Read
  1049  013C  1283               	bcf	3,5	;RP0=0, select bank0
  1050  013D  1303               	bcf	3,6	;RP1=0, select bank0
  1051  013E  0820               	movf	?_I2C_Master_Read,w
  1052  013F  00FF               	movwf	btemp+1
  1053  0140  087F               	movf	btemp+1,w
  1054  0141  00F3               	movwf	_hora
  1055  0142                     l1818:
  1056                           
  1057                           ;C:/Users/Carlo/OneDrive/Documentos/Quinto Semestre/Digital2/Proyecto2/I2CPJ2.X/main.c: 
      +                          184:             break;
  1058  0142  3001               	movlw	1
  1059  0143  00A0               	movwf	I2C_Master_Read@a
  1060  0144  3000               	movlw	0
  1061  0145  00A1               	movwf	I2C_Master_Read@a+1
  1062  0146  120A  118A  2364  120A  118A  	fcall	_I2C_Master_Read
  1063  014B  1283               	bcf	3,5	;RP0=0, select bank0
  1064  014C  1303               	bcf	3,6	;RP1=0, select bank0
  1065  014D  0820               	movf	?_I2C_Master_Read,w
  1066  014E  00FF               	movwf	btemp+1
  1067  014F  087F               	movf	btemp+1,w
  1068  0150  00BB               	movwf	_basura
  1069  0151                     l1820:
  1070                           
  1071                           ;C:/Users/Carlo/OneDrive/Documentos/Quinto Semestre/Digital2/Proyecto2/I2CPJ2.X/main.c: 
      +                          185:         case 6:
  1072  0151  3001               	movlw	1
  1073  0152  00A0               	movwf	I2C_Master_Read@a
  1074  0153  3000               	movlw	0
  1075  0154  00A1               	movwf	I2C_Master_Read@a+1
  1076  0155  120A  118A  2364  120A  118A  	fcall	_I2C_Master_Read
  1077  015A  1283               	bcf	3,5	;RP0=0, select bank0
  1078  015B  1303               	bcf	3,6	;RP1=0, select bank0
  1079  015C  0820               	movf	?_I2C_Master_Read,w
  1080  015D  00FF               	movwf	btemp+1
  1081  015E  087F               	movf	btemp+1,w
  1082  015F  00F2               	movwf	_dia
  1083  0160                     l1822:
  1084                           
  1085                           ;C:/Users/Carlo/OneDrive/Documentos/Quinto Semestre/Digital2/Proyecto2/I2CPJ2.X/main.c: 
      +                          186:             TXREG = 47;
  1086  0160  3001               	movlw	1
  1087  0161  00A0               	movwf	I2C_Master_Read@a
  1088  0162  3000               	movlw	0
  1089  0163  00A1               	movwf	I2C_Master_Read@a+1
  1090  0164  120A  118A  2364  120A  118A  	fcall	_I2C_Master_Read
  1091  0169  1283               	bcf	3,5	;RP0=0, select bank0
  1092  016A  1303               	bcf	3,6	;RP1=0, select bank0
  1093  016B  0820               	movf	?_I2C_Master_Read,w
  1094  016C  00FF               	movwf	btemp+1
  1095  016D  087F               	movf	btemp+1,w
  1096  016E  00F1               	movwf	_mes
  1097  016F                     l1824:
  1098                           
  1099                           ;C:/Users/Carlo/OneDrive/Documentos/Quinto Semestre/Digital2/Proyecto2/I2CPJ2.X/main.c: 
      +                          187:             break;
  1100  016F  3000               	movlw	0
  1101  0170  00A0               	movwf	I2C_Master_Read@a
  1102  0171  00A1               	movwf	I2C_Master_Read@a+1
  1103  0172  120A  118A  2364  120A  118A  	fcall	_I2C_Master_Read
  1104  0177  1283               	bcf	3,5	;RP0=0, select bank0
  1105  0178  1303               	bcf	3,6	;RP1=0, select bank0
  1106  0179  0820               	movf	?_I2C_Master_Read,w
  1107  017A  00FF               	movwf	btemp+1
  1108  017B  087F               	movf	btemp+1,w
  1109  017C  00BE               	movwf	_ano
  1110  017D                     l1826:
  1111                           
  1112                           ;C:/Users/Carlo/OneDrive/Documentos/Quinto Semestre/Digital2/Proyecto2/I2CPJ2.X/main.c: 
      +                          188:         case 7:
  1113  017D  120A  118A  2420  120A  118A  	fcall	_I2C_Master_Stop
  1114  0182                     l127:
  1115  0182  0008               	return
  1116  0183                     __end_of_recibir_tiempo:
  1117                           
  1118                           	psect	text2
  1119  0416                     __ptext2:	
  1120 ;; *************** function _I2C_Master_Write *****************
  1121 ;; Defined at:
  1122 ;;		line 65 in file "C:/Users/Carlo/OneDrive/Documentos/Quinto Semestre/Digital2/Proyecto2/I2CPJ2.X/I2C.c"
  1123 ;; Parameters:    Size  Location     Type
  1124 ;;  d               2    0[BANK0 ] unsigned int 
  1125 ;; Auto vars:     Size  Location     Type
  1126 ;;		None
  1127 ;; Return value:  Size  Location     Type
  1128 ;;                  1    wreg      void 
  1129 ;; Registers used:
  1130 ;;		wreg, status,2, status,0, pclath, cstack
  1131 ;; Tracked objects:
  1132 ;;		On entry : 0/0
  1133 ;;		On exit  : 0/0
  1134 ;;		Unchanged: 0/0
  1135 ;; Data sizes:     COMMON   BANK0   BANK1   BANK3   BANK2
  1136 ;;      Params:         0       2       0       0       0
  1137 ;;      Locals:         0       0       0       0       0
  1138 ;;      Temps:          0       0       0       0       0
  1139 ;;      Totals:         0       2       0       0       0
  1140 ;;Total ram usage:        2 bytes
  1141 ;; Hardware stack levels used:    1
  1142 ;; Hardware stack levels required when called:    3
  1143 ;; This function calls:
  1144 ;;		_I2C_Master_Wait
  1145 ;; This function is called by:
  1146 ;;		_recibir_tiempo
  1147 ;;		_escribir_tiempo
  1148 ;; This function uses a non-reentrant model
  1149 ;;
  1150                           
  1151                           
  1152                           ;psect for function _I2C_Master_Write
  1153  0416                     _I2C_Master_Write:
  1154  0416                     l1662:	
  1155                           ;incstack = 0
  1156                           ; Regs used in _I2C_Master_Write: [wreg+status,2+status,0+pclath+cstack]
  1157                           
  1158                           
  1159                           ;C:/Users/Carlo/OneDrive/Documentos/Quinto Semestre/Digital2/Proyecto2/I2CPJ2.X/I2C.c: 6
      +                          5: void I2C_Master_Write(unsigned d);C:/Users/Carlo/OneDrive/Documentos/Quinto Semestre/
      +                          Digital2/Proyecto2/I2CPJ2.X/I2C.c: 66: {;C:/Users/Carlo/OneDrive/Documentos/Quinto Semes
      +                          tre/Digital2/Proyecto2/I2CPJ2.X/I2C.c: 67:     I2C_Master_Wait();
  1160  0416  120A  118A  2409  120A  118A  	fcall	_I2C_Master_Wait
  1161  041B                     l1664:
  1162                           
  1163                           ;C:/Users/Carlo/OneDrive/Documentos/Quinto Semestre/Digital2/Proyecto2/I2CPJ2.X/I2C.c: 6
      +                          8:     SSPBUF = d;
  1164  041B  1283               	bcf	3,5	;RP0=0, select bank0
  1165  041C  1303               	bcf	3,6	;RP1=0, select bank0
  1166  041D  0820               	movf	I2C_Master_Write@d,w
  1167  041E  0093               	movwf	19	;volatile
  1168  041F                     l200:
  1169  041F  0008               	return
  1170  0420                     __end_of_I2C_Master_Write:
  1171                           
  1172                           	psect	text3
  1173  0420                     __ptext3:	
  1174 ;; *************** function _I2C_Master_Stop *****************
  1175 ;; Defined at:
  1176 ;;		line 55 in file "C:/Users/Carlo/OneDrive/Documentos/Quinto Semestre/Digital2/Proyecto2/I2CPJ2.X/I2C.c"
  1177 ;; Parameters:    Size  Location     Type
  1178 ;;		None
  1179 ;; Auto vars:     Size  Location     Type
  1180 ;;		None
  1181 ;; Return value:  Size  Location     Type
  1182 ;;                  1    wreg      void 
  1183 ;; Registers used:
  1184 ;;		wreg, status,2, status,0, pclath, cstack
  1185 ;; Tracked objects:
  1186 ;;		On entry : 0/0
  1187 ;;		On exit  : 0/0
  1188 ;;		Unchanged: 0/0
  1189 ;; Data sizes:     COMMON   BANK0   BANK1   BANK3   BANK2
  1190 ;;      Params:         0       0       0       0       0
  1191 ;;      Locals:         0       0       0       0       0
  1192 ;;      Temps:          0       0       0       0       0
  1193 ;;      Totals:         0       0       0       0       0
  1194 ;;Total ram usage:        0 bytes
  1195 ;; Hardware stack levels used:    1
  1196 ;; Hardware stack levels required when called:    3
  1197 ;; This function calls:
  1198 ;;		_I2C_Master_Wait
  1199 ;; This function is called by:
  1200 ;;		_recibir_tiempo
  1201 ;;		_escribir_tiempo
  1202 ;; This function uses a non-reentrant model
  1203 ;;
  1204                           
  1205                           
  1206                           ;psect for function _I2C_Master_Stop
  1207  0420                     _I2C_Master_Stop:
  1208  0420                     l1666:	
  1209                           ;incstack = 0
  1210                           ; Regs used in _I2C_Master_Stop: [wreg+status,2+status,0+pclath+cstack]
  1211                           
  1212                           
  1213                           ;C:/Users/Carlo/OneDrive/Documentos/Quinto Semestre/Digital2/Proyecto2/I2CPJ2.X/I2C.c: 5
      +                          7:     I2C_Master_Wait();
  1214  0420  120A  118A  2409  120A  118A  	fcall	_I2C_Master_Wait
  1215  0425                     l1668:
  1216                           
  1217                           ;C:/Users/Carlo/OneDrive/Documentos/Quinto Semestre/Digital2/Proyecto2/I2CPJ2.X/I2C.c: 5
      +                          8:     SSPCON2bits.PEN = 1;
  1218  0425  1683               	bsf	3,5	;RP0=1, select bank1
  1219  0426  1303               	bcf	3,6	;RP1=0, select bank1
  1220  0427  1511               	bsf	17,2	;volatile
  1221  0428                     l197:
  1222  0428  0008               	return
  1223  0429                     __end_of_I2C_Master_Stop:
  1224                           
  1225                           	psect	text4
  1226  0429                     __ptext4:	
  1227 ;; *************** function _I2C_Master_Start *****************
  1228 ;; Defined at:
  1229 ;;		line 39 in file "C:/Users/Carlo/OneDrive/Documentos/Quinto Semestre/Digital2/Proyecto2/I2CPJ2.X/I2C.c"
  1230 ;; Parameters:    Size  Location     Type
  1231 ;;		None
  1232 ;; Auto vars:     Size  Location     Type
  1233 ;;		None
  1234 ;; Return value:  Size  Location     Type
  1235 ;;                  1    wreg      void 
  1236 ;; Registers used:
  1237 ;;		wreg, status,2, status,0, pclath, cstack
  1238 ;; Tracked objects:
  1239 ;;		On entry : 0/0
  1240 ;;		On exit  : 0/0
  1241 ;;		Unchanged: 0/0
  1242 ;; Data sizes:     COMMON   BANK0   BANK1   BANK3   BANK2
  1243 ;;      Params:         0       0       0       0       0
  1244 ;;      Locals:         0       0       0       0       0
  1245 ;;      Temps:          0       0       0       0       0
  1246 ;;      Totals:         0       0       0       0       0
  1247 ;;Total ram usage:        0 bytes
  1248 ;; Hardware stack levels used:    1
  1249 ;; Hardware stack levels required when called:    3
  1250 ;; This function calls:
  1251 ;;		_I2C_Master_Wait
  1252 ;; This function is called by:
  1253 ;;		_recibir_tiempo
  1254 ;;		_escribir_tiempo
  1255 ;; This function uses a non-reentrant model
  1256 ;;
  1257                           
  1258                           
  1259                           ;psect for function _I2C_Master_Start
  1260  0429                     _I2C_Master_Start:
  1261  0429                     l1658:	
  1262                           ;incstack = 0
  1263                           ; Regs used in _I2C_Master_Start: [wreg+status,2+status,0+pclath+cstack]
  1264                           
  1265                           
  1266                           ;C:/Users/Carlo/OneDrive/Documentos/Quinto Semestre/Digital2/Proyecto2/I2CPJ2.X/I2C.c: 4
      +                          1:     I2C_Master_Wait();
  1267  0429  120A  118A  2409  120A  118A  	fcall	_I2C_Master_Wait
  1268  042E                     l1660:
  1269                           
  1270                           ;C:/Users/Carlo/OneDrive/Documentos/Quinto Semestre/Digital2/Proyecto2/I2CPJ2.X/I2C.c: 4
      +                          2:     SSPCON2bits.SEN = 1;
  1271  042E  1683               	bsf	3,5	;RP0=1, select bank1
  1272  042F  1303               	bcf	3,6	;RP1=0, select bank1
  1273  0430  1411               	bsf	17,0	;volatile
  1274  0431                     l191:
  1275  0431  0008               	return
  1276  0432                     __end_of_I2C_Master_Start:
  1277                           
  1278                           	psect	text5
  1279  0364                     __ptext5:	
  1280 ;; *************** function _I2C_Master_Read *****************
  1281 ;; Defined at:
  1282 ;;		line 74 in file "C:/Users/Carlo/OneDrive/Documentos/Quinto Semestre/Digital2/Proyecto2/I2CPJ2.X/I2C.c"
  1283 ;; Parameters:    Size  Location     Type
  1284 ;;  a               2    0[BANK0 ] unsigned short 
  1285 ;; Auto vars:     Size  Location     Type
  1286 ;;  temp            2    4[BANK0 ] unsigned short 
  1287 ;; Return value:  Size  Location     Type
  1288 ;;                  2    0[BANK0 ] unsigned short 
  1289 ;; Registers used:
  1290 ;;		wreg, status,2, status,0, pclath, cstack
  1291 ;; Tracked objects:
  1292 ;;		On entry : 0/0
  1293 ;;		On exit  : 0/0
  1294 ;;		Unchanged: 0/0
  1295 ;; Data sizes:     COMMON   BANK0   BANK1   BANK3   BANK2
  1296 ;;      Params:         0       2       0       0       0
  1297 ;;      Locals:         0       2       0       0       0
  1298 ;;      Temps:          0       2       0       0       0
  1299 ;;      Totals:         0       6       0       0       0
  1300 ;;Total ram usage:        6 bytes
  1301 ;; Hardware stack levels used:    1
  1302 ;; Hardware stack levels required when called:    3
  1303 ;; This function calls:
  1304 ;;		_I2C_Master_Wait
  1305 ;; This function is called by:
  1306 ;;		_recibir_tiempo
  1307 ;; This function uses a non-reentrant model
  1308 ;;
  1309                           
  1310                           
  1311                           ;psect for function _I2C_Master_Read
  1312  0364                     _I2C_Master_Read:
  1313  0364                     l1670:	
  1314                           ;incstack = 0
  1315                           ; Regs used in _I2C_Master_Read: [wreg+status,2+status,0+pclath+cstack]
  1316                           
  1317                           
  1318                           ;C:/Users/Carlo/OneDrive/Documentos/Quinto Semestre/Digital2/Proyecto2/I2CPJ2.X/I2C.c: 7
      +                          4: unsigned short I2C_Master_Read(unsigned short a);C:/Users/Carlo/OneDrive/Documentos/Q
      +                          uinto Semestre/Digital2/Proyecto2/I2CPJ2.X/I2C.c: 75: {;C:/Users/Carlo/OneDrive/Document
      +                          os/Quinto Semestre/Digital2/Proyecto2/I2CPJ2.X/I2C.c: 76:     unsigned short temp;;C:/Us
      +                          ers/Carlo/OneDrive/Documentos/Quinto Semestre/Digital2/Proyecto2/I2CPJ2.X/I2C.c: 77:    
      +                           I2C_Master_Wait();
  1319  0364  120A  118A  2409  120A  118A  	fcall	_I2C_Master_Wait
  1320  0369                     l1672:
  1321                           
  1322                           ;C:/Users/Carlo/OneDrive/Documentos/Quinto Semestre/Digital2/Proyecto2/I2CPJ2.X/I2C.c: 7
      +                          8:     SSPCON2bits.RCEN = 1;
  1323  0369  1683               	bsf	3,5	;RP0=1, select bank1
  1324  036A  1303               	bcf	3,6	;RP1=0, select bank1
  1325  036B  1591               	bsf	17,3	;volatile
  1326                           
  1327                           ;C:/Users/Carlo/OneDrive/Documentos/Quinto Semestre/Digital2/Proyecto2/I2CPJ2.X/I2C.c: 7
      +                          9:     I2C_Master_Wait();
  1328  036C  120A  118A  2409  120A  118A  	fcall	_I2C_Master_Wait
  1329  0371                     l1674:
  1330                           
  1331                           ;C:/Users/Carlo/OneDrive/Documentos/Quinto Semestre/Digital2/Proyecto2/I2CPJ2.X/I2C.c: 8
      +                          0:     temp = SSPBUF;
  1332  0371  1283               	bcf	3,5	;RP0=0, select bank0
  1333  0372  1303               	bcf	3,6	;RP1=0, select bank0
  1334  0373  0813               	movf	19,w	;volatile
  1335  0374  00A2               	movwf	??_I2C_Master_Read
  1336  0375  01A3               	clrf	??_I2C_Master_Read+1
  1337  0376  0822               	movf	??_I2C_Master_Read,w
  1338  0377  00A4               	movwf	I2C_Master_Read@temp
  1339  0378  0823               	movf	??_I2C_Master_Read+1,w
  1340  0379  00A5               	movwf	I2C_Master_Read@temp+1
  1341  037A                     l1676:
  1342                           
  1343                           ;C:/Users/Carlo/OneDrive/Documentos/Quinto Semestre/Digital2/Proyecto2/I2CPJ2.X/I2C.c: 8
      +                          1:     I2C_Master_Wait();
  1344  037A  120A  118A  2409  120A  118A  	fcall	_I2C_Master_Wait
  1345  037F                     l1678:
  1346                           
  1347                           ;C:/Users/Carlo/OneDrive/Documentos/Quinto Semestre/Digital2/Proyecto2/I2CPJ2.X/I2C.c: 8
      +                          2:     if(a == 1){
  1348  037F  1283               	bcf	3,5	;RP0=0, select bank0
  1349  0380  1303               	bcf	3,6	;RP1=0, select bank0
  1350  0381  0320               	decf	I2C_Master_Read@a,w
  1351  0382  0421               	iorwf	I2C_Master_Read@a+1,w
  1352  0383  1D03               	btfss	3,2
  1353  0384  2B86               	goto	u591
  1354  0385  2B87               	goto	u590
  1355  0386                     u591:
  1356  0386  2B8B               	goto	l203
  1357  0387                     u590:
  1358  0387                     l1680:
  1359                           
  1360                           ;C:/Users/Carlo/OneDrive/Documentos/Quinto Semestre/Digital2/Proyecto2/I2CPJ2.X/I2C.c: 8
      +                          3:         SSPCON2bits.ACKDT = 0;
  1361  0387  1683               	bsf	3,5	;RP0=1, select bank1
  1362  0388  1303               	bcf	3,6	;RP1=0, select bank1
  1363  0389  1291               	bcf	17,5	;volatile
  1364                           
  1365                           ;C:/Users/Carlo/OneDrive/Documentos/Quinto Semestre/Digital2/Proyecto2/I2CPJ2.X/I2C.c: 8
      +                          4:     }else{
  1366  038A  2B8E               	goto	l204
  1367  038B                     l203:
  1368                           
  1369                           ;C:/Users/Carlo/OneDrive/Documentos/Quinto Semestre/Digital2/Proyecto2/I2CPJ2.X/I2C.c: 8
      +                          5:         SSPCON2bits.ACKDT = 1;
  1370  038B  1683               	bsf	3,5	;RP0=1, select bank1
  1371  038C  1303               	bcf	3,6	;RP1=0, select bank1
  1372  038D  1691               	bsf	17,5	;volatile
  1373  038E                     l204:	
  1374                           ;C:/Users/Carlo/OneDrive/Documentos/Quinto Semestre/Digital2/Proyecto2/I2CPJ2.X/I2C.c: 8
      +                          6:     }
  1375                           
  1376                           
  1377                           ;C:/Users/Carlo/OneDrive/Documentos/Quinto Semestre/Digital2/Proyecto2/I2CPJ2.X/I2C.c: 8
      +                          7:     SSPCON2bits.ACKEN = 1;
  1378  038E  1611               	bsf	17,4	;volatile
  1379  038F                     l1682:
  1380                           
  1381                           ;C:/Users/Carlo/OneDrive/Documentos/Quinto Semestre/Digital2/Proyecto2/I2CPJ2.X/I2C.c: 8
      +                          8:     return temp;
  1382  038F  1283               	bcf	3,5	;RP0=0, select bank0
  1383  0390  1303               	bcf	3,6	;RP1=0, select bank0
  1384  0391  0825               	movf	I2C_Master_Read@temp+1,w
  1385  0392  00A1               	movwf	?_I2C_Master_Read+1
  1386  0393  0824               	movf	I2C_Master_Read@temp,w
  1387  0394  00A0               	movwf	?_I2C_Master_Read
  1388  0395                     l205:
  1389  0395  0008               	return
  1390  0396                     __end_of_I2C_Master_Read:
  1391                           
  1392                           	psect	text6
  1393  0409                     __ptext6:	
  1394 ;; *************** function _I2C_Master_Wait *****************
  1395 ;; Defined at:
  1396 ;;		line 32 in file "C:/Users/Carlo/OneDrive/Documentos/Quinto Semestre/Digital2/Proyecto2/I2CPJ2.X/I2C.c"
  1397 ;; Parameters:    Size  Location     Type
  1398 ;;		None
  1399 ;; Auto vars:     Size  Location     Type
  1400 ;;		None
  1401 ;; Return value:  Size  Location     Type
  1402 ;;                  1    wreg      void 
  1403 ;; Registers used:
  1404 ;;		wreg, status,2
  1405 ;; Tracked objects:
  1406 ;;		On entry : 0/0
  1407 ;;		On exit  : 0/0
  1408 ;;		Unchanged: 0/0
  1409 ;; Data sizes:     COMMON   BANK0   BANK1   BANK3   BANK2
  1410 ;;      Params:         0       0       0       0       0
  1411 ;;      Locals:         0       0       0       0       0
  1412 ;;      Temps:          0       0       0       0       0
  1413 ;;      Totals:         0       0       0       0       0
  1414 ;;Total ram usage:        0 bytes
  1415 ;; Hardware stack levels used:    1
  1416 ;; Hardware stack levels required when called:    2
  1417 ;; This function calls:
  1418 ;;		Nothing
  1419 ;; This function is called by:
  1420 ;;		_I2C_Master_Start
  1421 ;;		_I2C_Master_Stop
  1422 ;;		_I2C_Master_Write
  1423 ;;		_I2C_Master_Read
  1424 ;;		_I2C_Master_RepeatedStart
  1425 ;; This function uses a non-reentrant model
  1426 ;;
  1427                           
  1428                           
  1429                           ;psect for function _I2C_Master_Wait
  1430  0409                     _I2C_Master_Wait:
  1431  0409                     l1616:	
  1432                           ;incstack = 0
  1433                           ; Regs used in _I2C_Master_Wait: [wreg+status,2]
  1434                           
  1435  0409                     l185:	
  1436                           ;C:/Users/Carlo/OneDrive/Documentos/Quinto Semestre/Digital2/Proyecto2/I2CPJ2.X/I2C.c: 3
      +                          4:     while ((SSPSTAT & 0x04) || (SSPCON2 & 0x1F));
  1437                           
  1438  0409  1683               	bsf	3,5	;RP0=1, select bank1
  1439  040A  1303               	bcf	3,6	;RP1=0, select bank1
  1440  040B  1914               	btfsc	20,2	;volatile
  1441  040C  2C0E               	goto	u491
  1442  040D  2C0F               	goto	u490
  1443  040E                     u491:
  1444  040E  2C09               	goto	l185
  1445  040F                     u490:
  1446  040F                     l1618:
  1447  040F  0811               	movf	17,w	;volatile
  1448  0410  391F               	andlw	31
  1449  0411  1D03               	btfss	3,2
  1450  0412  2C14               	goto	u501
  1451  0413  2C15               	goto	u500
  1452  0414                     u501:
  1453  0414  2C09               	goto	l185
  1454  0415                     u500:
  1455  0415                     l188:
  1456  0415  0008               	return
  1457  0416                     __end_of_I2C_Master_Wait:
  1458                           
  1459                           	psect	text7
  1460  0396                     __ptext7:	
  1461 ;; *************** function _initOsc *****************
  1462 ;; Defined at:
  1463 ;;		line 7 in file "C:/Users/Carlo/OneDrive/Documentos/Quinto Semestre/Digital2/Proyecto2/I2CPJ2.X/Osc.c"
  1464 ;; Parameters:    Size  Location     Type
  1465 ;;  frec            1    wreg     unsigned char 
  1466 ;; Auto vars:     Size  Location     Type
  1467 ;;  frec            1    2[BANK0 ] unsigned char 
  1468 ;; Return value:  Size  Location     Type
  1469 ;;                  1    wreg      void 
  1470 ;; Registers used:
  1471 ;;		wreg, fsr0l, fsr0h, status,2, status,0
  1472 ;; Tracked objects:
  1473 ;;		On entry : 0/0
  1474 ;;		On exit  : 0/0
  1475 ;;		Unchanged: 0/0
  1476 ;; Data sizes:     COMMON   BANK0   BANK1   BANK3   BANK2
  1477 ;;      Params:         0       0       0       0       0
  1478 ;;      Locals:         0       1       0       0       0
  1479 ;;      Temps:          0       2       0       0       0
  1480 ;;      Totals:         0       3       0       0       0
  1481 ;;Total ram usage:        3 bytes
  1482 ;; Hardware stack levels used:    1
  1483 ;; Hardware stack levels required when called:    2
  1484 ;; This function calls:
  1485 ;;		Nothing
  1486 ;; This function is called by:
  1487 ;;		_main
  1488 ;; This function uses a non-reentrant model
  1489 ;;
  1490                           
  1491                           
  1492                           ;psect for function _initOsc
  1493  0396                     _initOsc:
  1494                           
  1495                           ;incstack = 0
  1496                           ; Regs used in _initOsc: [wreg-fsr0h+status,2+status,0]
  1497                           ;initOsc@frec stored from wreg
  1498  0396  1283               	bcf	3,5	;RP0=0, select bank0
  1499  0397  1303               	bcf	3,6	;RP1=0, select bank0
  1500  0398  00A2               	movwf	initOsc@frec
  1501  0399                     l1764:
  1502                           
  1503                           ;C:/Users/Carlo/OneDrive/Documentos/Quinto Semestre/Digital2/Proyecto2/I2CPJ2.X/Osc.c: 8
      +                          :     switch(frec){
  1504  0399  2BB2               	goto	l1768
  1505  039A                     l214:	
  1506                           ;C:/Users/Carlo/OneDrive/Documentos/Quinto Semestre/Digital2/Proyecto2/I2CPJ2.X/Osc.c: 9
      +                          :         case 0:
  1507                           
  1508                           
  1509                           ;C:/Users/Carlo/OneDrive/Documentos/Quinto Semestre/Digital2/Proyecto2/I2CPJ2.X/Osc.c: 1
      +                          0:             OSCCONbits.IRCF0 = 0;
  1510  039A  1683               	bsf	3,5	;RP0=1, select bank1
  1511  039B  1303               	bcf	3,6	;RP1=0, select bank1
  1512  039C  120F               	bcf	15,4	;volatile
  1513                           
  1514                           ;C:/Users/Carlo/OneDrive/Documentos/Quinto Semestre/Digital2/Proyecto2/I2CPJ2.X/Osc.c: 1
      +                          1:             OSCCONbits.IRCF1 = 0;
  1515  039D  128F               	bcf	15,5	;volatile
  1516                           
  1517                           ;C:/Users/Carlo/OneDrive/Documentos/Quinto Semestre/Digital2/Proyecto2/I2CPJ2.X/Osc.c: 1
      +                          2:             OSCCONbits.IRCF2 = 0;
  1518  039E  130F               	bcf	15,6	;volatile
  1519                           
  1520                           ;C:/Users/Carlo/OneDrive/Documentos/Quinto Semestre/Digital2/Proyecto2/I2CPJ2.X/Osc.c: 1
      +                          3:             break;
  1521  039F  2BC5               	goto	l215
  1522  03A0                     l216:	
  1523                           ;C:/Users/Carlo/OneDrive/Documentos/Quinto Semestre/Digital2/Proyecto2/I2CPJ2.X/Osc.c: 1
      +                          4:         case 1:
  1524                           
  1525                           
  1526                           ;C:/Users/Carlo/OneDrive/Documentos/Quinto Semestre/Digital2/Proyecto2/I2CPJ2.X/Osc.c: 1
      +                          5:             OSCCONbits.IRCF0 = 1;
  1527  03A0  1683               	bsf	3,5	;RP0=1, select bank1
  1528  03A1  1303               	bcf	3,6	;RP1=0, select bank1
  1529  03A2  160F               	bsf	15,4	;volatile
  1530                           
  1531                           ;C:/Users/Carlo/OneDrive/Documentos/Quinto Semestre/Digital2/Proyecto2/I2CPJ2.X/Osc.c: 1
      +                          6:             OSCCONbits.IRCF1 = 0;
  1532  03A3  128F               	bcf	15,5	;volatile
  1533                           
  1534                           ;C:/Users/Carlo/OneDrive/Documentos/Quinto Semestre/Digital2/Proyecto2/I2CPJ2.X/Osc.c: 1
      +                          7:             OSCCONbits.IRCF2 = 0;
  1535  03A4  130F               	bcf	15,6	;volatile
  1536                           
  1537                           ;C:/Users/Carlo/OneDrive/Documentos/Quinto Semestre/Digital2/Proyecto2/I2CPJ2.X/Osc.c: 1
      +                          8:             break;
  1538  03A5  2BC5               	goto	l215
  1539  03A6                     l217:	
  1540                           ;C:/Users/Carlo/OneDrive/Documentos/Quinto Semestre/Digital2/Proyecto2/I2CPJ2.X/Osc.c: 2
      +                          6:         case 7:
  1541                           
  1542                           
  1543                           ;C:/Users/Carlo/OneDrive/Documentos/Quinto Semestre/Digital2/Proyecto2/I2CPJ2.X/Osc.c: 2
      +                          7:             OSCCONbits.IRCF0 = 1;
  1544  03A6  1683               	bsf	3,5	;RP0=1, select bank1
  1545  03A7  1303               	bcf	3,6	;RP1=0, select bank1
  1546  03A8  160F               	bsf	15,4	;volatile
  1547                           
  1548                           ;C:/Users/Carlo/OneDrive/Documentos/Quinto Semestre/Digital2/Proyecto2/I2CPJ2.X/Osc.c: 2
      +                          8:             OSCCONbits.IRCF1 = 1;
  1549  03A9  168F               	bsf	15,5	;volatile
  1550                           
  1551                           ;C:/Users/Carlo/OneDrive/Documentos/Quinto Semestre/Digital2/Proyecto2/I2CPJ2.X/Osc.c: 2
      +                          9:             OSCCONbits.IRCF2 = 1;
  1552  03AA  170F               	bsf	15,6	;volatile
  1553                           
  1554                           ;C:/Users/Carlo/OneDrive/Documentos/Quinto Semestre/Digital2/Proyecto2/I2CPJ2.X/Osc.c: 3
      +                          0:             break;
  1555  03AB  2BC5               	goto	l215
  1556  03AC                     l218:	
  1557                           ;C:/Users/Carlo/OneDrive/Documentos/Quinto Semestre/Digital2/Proyecto2/I2CPJ2.X/Osc.c: 3
      +                          1:         default:
  1558                           
  1559                           
  1560                           ;C:/Users/Carlo/OneDrive/Documentos/Quinto Semestre/Digital2/Proyecto2/I2CPJ2.X/Osc.c: 3
      +                          2:             OSCCONbits.IRCF0 = 0;
  1561  03AC  1683               	bsf	3,5	;RP0=1, select bank1
  1562  03AD  1303               	bcf	3,6	;RP1=0, select bank1
  1563  03AE  120F               	bcf	15,4	;volatile
  1564                           
  1565                           ;C:/Users/Carlo/OneDrive/Documentos/Quinto Semestre/Digital2/Proyecto2/I2CPJ2.X/Osc.c: 3
      +                          3:             OSCCONbits.IRCF1 = 1;
  1566  03AF  168F               	bsf	15,5	;volatile
  1567                           
  1568                           ;C:/Users/Carlo/OneDrive/Documentos/Quinto Semestre/Digital2/Proyecto2/I2CPJ2.X/Osc.c: 3
      +                          4:             OSCCONbits.IRCF2 = 1;
  1569  03B0  170F               	bsf	15,6	;volatile
  1570                           
  1571                           ;C:/Users/Carlo/OneDrive/Documentos/Quinto Semestre/Digital2/Proyecto2/I2CPJ2.X/Osc.c: 3
      +                          5:             break;
  1572  03B1  2BC5               	goto	l215
  1573  03B2                     l1768:
  1574  03B2  0822               	movf	initOsc@frec,w
  1575  03B3  00A0               	movwf	??_initOsc
  1576  03B4  01A1               	clrf	??_initOsc+1
  1577                           
  1578                           ; Switch on 2 bytes has been partitioned into a top level switch of size 1, and 1 sub-sw
      +                          itches
  1579                           ; Switch size 1, requested type "simple"
  1580                           ; Number of cases is 1, Range of values is 0 to 0
  1581                           ; switch strategies available:
  1582                           ; Name         Instructions Cycles
  1583                           ; simple_byte            4     3 (average)
  1584                           ; direct_byte           11     8 (fixed)
  1585                           ; jumptable            260     6 (fixed)
  1586                           ;	Chosen strategy is simple_byte
  1587  03B5  0821               	movf	??_initOsc+1,w
  1588  03B6  3A00               	xorlw	0	; case 0
  1589  03B7  1903               	skipnz
  1590  03B8  2BBA               	goto	l1940
  1591  03B9  2BAC               	goto	l218
  1592  03BA                     l1940:
  1593                           
  1594                           ; Switch size 1, requested type "simple"
  1595                           ; Number of cases is 3, Range of values is 0 to 7
  1596                           ; switch strategies available:
  1597                           ; Name         Instructions Cycles
  1598                           ; simple_byte           10     6 (average)
  1599                           ; direct_byte           32     8 (fixed)
  1600                           ; jumptable            260     6 (fixed)
  1601                           ;	Chosen strategy is simple_byte
  1602  03BA  0820               	movf	??_initOsc,w
  1603  03BB  3A00               	xorlw	0	; case 0
  1604  03BC  1903               	skipnz
  1605  03BD  2B9A               	goto	l214
  1606  03BE  3A01               	xorlw	1	; case 1
  1607  03BF  1903               	skipnz
  1608  03C0  2BA0               	goto	l216
  1609  03C1  3A06               	xorlw	6	; case 7
  1610  03C2  1903               	skipnz
  1611  03C3  2BA6               	goto	l217
  1612  03C4  2BAC               	goto	l218
  1613  03C5                     l215:
  1614                           
  1615                           ;C:/Users/Carlo/OneDrive/Documentos/Quinto Semestre/Digital2/Proyecto2/I2CPJ2.X/Osc.c: 3
      +                          8:     OSCCONbits.SCS = 1;
  1616  03C5  140F               	bsf	15,0	;volatile
  1617  03C6                     l219:
  1618  03C6  0008               	return
  1619  03C7                     __end_of_initOsc:
  1620                           
  1621                           	psect	text8
  1622  0028                     __ptext8:	
  1623 ;; *************** function _convertirBCD *****************
  1624 ;; Defined at:
  1625 ;;		line 194 in file "C:/Users/Carlo/OneDrive/Documentos/Quinto Semestre/Digital2/Proyecto2/I2CPJ2.X/main.c"
  1626 ;; Parameters:    Size  Location     Type
  1627 ;;		None
  1628 ;; Auto vars:     Size  Location     Type
  1629 ;;		None
  1630 ;; Return value:  Size  Location     Type
  1631 ;;                  1    wreg      void 
  1632 ;; Registers used:
  1633 ;;		wreg, fsr0l, fsr0h, status,2, status,0, btemp+1, pclath, cstack
  1634 ;; Tracked objects:
  1635 ;;		On entry : 0/0
  1636 ;;		On exit  : 0/0
  1637 ;;		Unchanged: 0/0
  1638 ;; Data sizes:     COMMON   BANK0   BANK1   BANK3   BANK2
  1639 ;;      Params:         0       0       0       0       0
  1640 ;;      Locals:         0       0       0       0       0
  1641 ;;      Temps:          0       1       0       0       0
  1642 ;;      Totals:         0       1       0       0       0
  1643 ;;Total ram usage:        1 bytes
  1644 ;; Hardware stack levels used:    1
  1645 ;; Hardware stack levels required when called:    3
  1646 ;; This function calls:
  1647 ;;		_num_ascii
  1648 ;; This function is called by:
  1649 ;;		_main
  1650 ;; This function uses a non-reentrant model
  1651 ;;
  1652                           
  1653                           
  1654                           ;psect for function _convertirBCD
  1655  0028                     _convertirBCD:
  1656  0028                     l1828:	
  1657                           ;incstack = 0
  1658                           ; Regs used in _convertirBCD: [wreg-fsr0h+status,2+status,0+btemp+1+pclath+cstack]
  1659                           
  1660                           
  1661                           ;C:/Users/Carlo/OneDrive/Documentos/Quinto Semestre/Digital2/Proyecto2/I2CPJ2.X/main.c: 
      +                          195:             TXREG = 0x20;
  1662  0028  0875               	movf	_seg,w
  1663  0029  390F               	andlw	15
  1664  002A  120A  118A  22E9  120A  118A  	fcall	_num_ascii
  1665  002F  00FF               	movwf	btemp+1
  1666  0030  087F               	movf	btemp+1,w
  1667  0031  1283               	bcf	3,5	;RP0=0, select bank0
  1668  0032  1303               	bcf	3,6	;RP1=0, select bank0
  1669  0033  00C7               	movwf	_segU
  1670                           
  1671                           ;C:/Users/Carlo/OneDrive/Documentos/Quinto Semestre/Digital2/Proyecto2/I2CPJ2.X/main.c: 
      +                          196:             break;
  1672  0034  0875               	movf	_seg,w
  1673  0035  00A3               	movwf	??_convertirBCD
  1674  0036  3004               	movlw	4
  1675  0037                     u605:
  1676  0037  1003               	clrc
  1677  0038  0CA3               	rrf	??_convertirBCD,f
  1678  0039  3EFF               	addlw	-1
  1679  003A  1D03               	skipz
  1680  003B  2837               	goto	u605
  1681  003C  0823               	movf	??_convertirBCD,w
  1682  003D  390F               	andlw	15
  1683  003E  120A  118A  22E9  120A  118A  	fcall	_num_ascii
  1684  0043  00FF               	movwf	btemp+1
  1685  0044  087F               	movf	btemp+1,w
  1686  0045  1283               	bcf	3,5	;RP0=0, select bank0
  1687  0046  1303               	bcf	3,6	;RP1=0, select bank0
  1688  0047  00C8               	movwf	_segD
  1689                           
  1690                           ;C:/Users/Carlo/OneDrive/Documentos/Quinto Semestre/Digital2/Proyecto2/I2CPJ2.X/main.c: 
      +                          197:         case 10:
  1691  0048  0874               	movf	_min,w
  1692  0049  390F               	andlw	15
  1693  004A  120A  118A  22E9  120A  118A  	fcall	_num_ascii
  1694  004F  00FF               	movwf	btemp+1
  1695  0050  087F               	movf	btemp+1,w
  1696  0051  1283               	bcf	3,5	;RP0=0, select bank0
  1697  0052  1303               	bcf	3,6	;RP1=0, select bank0
  1698  0053  00C5               	movwf	_minU
  1699                           
  1700                           ;C:/Users/Carlo/OneDrive/Documentos/Quinto Semestre/Digital2/Proyecto2/I2CPJ2.X/main.c: 
      +                          198:             TXREG = horaD;
  1701  0054  0874               	movf	_min,w
  1702  0055  00A3               	movwf	??_convertirBCD
  1703  0056  3004               	movlw	4
  1704  0057                     u615:
  1705  0057  1003               	clrc
  1706  0058  0CA3               	rrf	??_convertirBCD,f
  1707  0059  3EFF               	addlw	-1
  1708  005A  1D03               	skipz
  1709  005B  2857               	goto	u615
  1710  005C  0823               	movf	??_convertirBCD,w
  1711  005D  390F               	andlw	15
  1712  005E  120A  118A  22E9  120A  118A  	fcall	_num_ascii
  1713  0063  00FF               	movwf	btemp+1
  1714  0064  087F               	movf	btemp+1,w
  1715  0065  1283               	bcf	3,5	;RP0=0, select bank0
  1716  0066  1303               	bcf	3,6	;RP1=0, select bank0
  1717  0067  00C6               	movwf	_minD
  1718                           
  1719                           ;C:/Users/Carlo/OneDrive/Documentos/Quinto Semestre/Digital2/Proyecto2/I2CPJ2.X/main.c: 
      +                          199:             break;
  1720  0068  0873               	movf	_hora,w
  1721  0069  390F               	andlw	15
  1722  006A  120A  118A  22E9  120A  118A  	fcall	_num_ascii
  1723  006F  00FF               	movwf	btemp+1
  1724  0070  087F               	movf	btemp+1,w
  1725  0071  1283               	bcf	3,5	;RP0=0, select bank0
  1726  0072  1303               	bcf	3,6	;RP1=0, select bank0
  1727  0073  00C3               	movwf	_horaU
  1728                           
  1729                           ;C:/Users/Carlo/OneDrive/Documentos/Quinto Semestre/Digital2/Proyecto2/I2CPJ2.X/main.c: 
      +                          200:         case 11:
  1730  0074  0873               	movf	_hora,w
  1731  0075  00A3               	movwf	??_convertirBCD
  1732  0076  3004               	movlw	4
  1733  0077                     u625:
  1734  0077  1003               	clrc
  1735  0078  0CA3               	rrf	??_convertirBCD,f
  1736  0079  3EFF               	addlw	-1
  1737  007A  1D03               	skipz
  1738  007B  2877               	goto	u625
  1739  007C  0823               	movf	??_convertirBCD,w
  1740  007D  3903               	andlw	3
  1741  007E  120A  118A  22E9  120A  118A  	fcall	_num_ascii
  1742  0083  00FF               	movwf	btemp+1
  1743  0084  087F               	movf	btemp+1,w
  1744  0085  1283               	bcf	3,5	;RP0=0, select bank0
  1745  0086  1303               	bcf	3,6	;RP1=0, select bank0
  1746  0087  00C4               	movwf	_horaD
  1747                           
  1748                           ;C:/Users/Carlo/OneDrive/Documentos/Quinto Semestre/Digital2/Proyecto2/I2CPJ2.X/main.c: 
      +                          201:             TXREG = horaU;
  1749  0088  0872               	movf	_dia,w
  1750  0089  390F               	andlw	15
  1751  008A  120A  118A  22E9  120A  118A  	fcall	_num_ascii
  1752  008F  00FF               	movwf	btemp+1
  1753  0090  087F               	movf	btemp+1,w
  1754  0091  1283               	bcf	3,5	;RP0=0, select bank0
  1755  0092  1303               	bcf	3,6	;RP1=0, select bank0
  1756  0093  00C1               	movwf	_diaU
  1757                           
  1758                           ;C:/Users/Carlo/OneDrive/Documentos/Quinto Semestre/Digital2/Proyecto2/I2CPJ2.X/main.c: 
      +                          202:             break;
  1759  0094  0872               	movf	_dia,w
  1760  0095  00A3               	movwf	??_convertirBCD
  1761  0096  3004               	movlw	4
  1762  0097                     u635:
  1763  0097  1003               	clrc
  1764  0098  0CA3               	rrf	??_convertirBCD,f
  1765  0099  3EFF               	addlw	-1
  1766  009A  1D03               	skipz
  1767  009B  2897               	goto	u635
  1768  009C  0823               	movf	??_convertirBCD,w
  1769  009D  390F               	andlw	15
  1770  009E  120A  118A  22E9  120A  118A  	fcall	_num_ascii
  1771  00A3  00FF               	movwf	btemp+1
  1772  00A4  087F               	movf	btemp+1,w
  1773  00A5  1283               	bcf	3,5	;RP0=0, select bank0
  1774  00A6  1303               	bcf	3,6	;RP1=0, select bank0
  1775  00A7  00C2               	movwf	_diaD
  1776                           
  1777                           ;C:/Users/Carlo/OneDrive/Documentos/Quinto Semestre/Digital2/Proyecto2/I2CPJ2.X/main.c: 
      +                          203:         case 12:
  1778  00A8  0871               	movf	_mes,w
  1779  00A9  390F               	andlw	15
  1780  00AA  120A  118A  22E9  120A  118A  	fcall	_num_ascii
  1781  00AF  00FF               	movwf	btemp+1
  1782  00B0  087F               	movf	btemp+1,w
  1783  00B1  1283               	bcf	3,5	;RP0=0, select bank0
  1784  00B2  1303               	bcf	3,6	;RP1=0, select bank0
  1785  00B3  00BF               	movwf	_mesU
  1786                           
  1787                           ;C:/Users/Carlo/OneDrive/Documentos/Quinto Semestre/Digital2/Proyecto2/I2CPJ2.X/main.c: 
      +                          204:             TXREG = 58;
  1788  00B4  0871               	movf	_mes,w
  1789  00B5  00A3               	movwf	??_convertirBCD
  1790  00B6  3004               	movlw	4
  1791  00B7                     u645:
  1792  00B7  1003               	clrc
  1793  00B8  0CA3               	rrf	??_convertirBCD,f
  1794  00B9  3EFF               	addlw	-1
  1795  00BA  1D03               	skipz
  1796  00BB  28B7               	goto	u645
  1797  00BC  0823               	movf	??_convertirBCD,w
  1798  00BD  390F               	andlw	15
  1799  00BE  120A  118A  22E9  120A  118A  	fcall	_num_ascii
  1800  00C3  00FF               	movwf	btemp+1
  1801  00C4  087F               	movf	btemp+1,w
  1802  00C5  1283               	bcf	3,5	;RP0=0, select bank0
  1803  00C6  1303               	bcf	3,6	;RP1=0, select bank0
  1804  00C7  00C0               	movwf	_mesD
  1805                           
  1806                           ;C:/Users/Carlo/OneDrive/Documentos/Quinto Semestre/Digital2/Proyecto2/I2CPJ2.X/main.c: 
      +                          205:             break;
  1807  00C8  083E               	movf	_ano,w
  1808  00C9  390F               	andlw	15
  1809  00CA  120A  118A  22E9  120A  118A  	fcall	_num_ascii
  1810  00CF  00FF               	movwf	btemp+1
  1811  00D0  087F               	movf	btemp+1,w
  1812  00D1  1283               	bcf	3,5	;RP0=0, select bank0
  1813  00D2  1303               	bcf	3,6	;RP1=0, select bank0
  1814  00D3  00BC               	movwf	_anoU
  1815                           
  1816                           ;C:/Users/Carlo/OneDrive/Documentos/Quinto Semestre/Digital2/Proyecto2/I2CPJ2.X/main.c: 
      +                          206:         case 13:
  1817  00D4  083E               	movf	_ano,w
  1818  00D5  00A3               	movwf	??_convertirBCD
  1819  00D6  3004               	movlw	4
  1820  00D7                     u655:
  1821  00D7  1003               	clrc
  1822  00D8  0CA3               	rrf	??_convertirBCD,f
  1823  00D9  3EFF               	addlw	-1
  1824  00DA  1D03               	skipz
  1825  00DB  28D7               	goto	u655
  1826  00DC  0823               	movf	??_convertirBCD,w
  1827  00DD  390F               	andlw	15
  1828  00DE  120A  118A  22E9  120A  118A  	fcall	_num_ascii
  1829  00E3  00FF               	movwf	btemp+1
  1830  00E4  087F               	movf	btemp+1,w
  1831  00E5  1283               	bcf	3,5	;RP0=0, select bank0
  1832  00E6  1303               	bcf	3,6	;RP1=0, select bank0
  1833  00E7  00BD               	movwf	_anoD
  1834  00E8                     l130:
  1835  00E8  0008               	return
  1836  00E9                     __end_of_convertirBCD:
  1837                           
  1838                           	psect	text9
  1839  02E9                     __ptext9:	
  1840 ;; *************** function _num_ascii *****************
  1841 ;; Defined at:
  1842 ;;		line 3 in file "C:/Users/Carlo/OneDrive/Documentos/Quinto Semestre/Digital2/Proyecto2/I2CPJ2.X/ASCII_NUM.c"
  1843 ;; Parameters:    Size  Location     Type
  1844 ;;  num             1    wreg     unsigned char 
  1845 ;; Auto vars:     Size  Location     Type
  1846 ;;  num             1    2[BANK0 ] unsigned char 
  1847 ;; Return value:  Size  Location     Type
  1848 ;;                  1    wreg      unsigned char 
  1849 ;; Registers used:
  1850 ;;		wreg, fsr0l, fsr0h, status,2, status,0
  1851 ;; Tracked objects:
  1852 ;;		On entry : 0/0
  1853 ;;		On exit  : 0/0
  1854 ;;		Unchanged: 0/0
  1855 ;; Data sizes:     COMMON   BANK0   BANK1   BANK3   BANK2
  1856 ;;      Params:         0       0       0       0       0
  1857 ;;      Locals:         0       1       0       0       0
  1858 ;;      Temps:          0       2       0       0       0
  1859 ;;      Totals:         0       3       0       0       0
  1860 ;;Total ram usage:        3 bytes
  1861 ;; Hardware stack levels used:    1
  1862 ;; Hardware stack levels required when called:    2
  1863 ;; This function calls:
  1864 ;;		Nothing
  1865 ;; This function is called by:
  1866 ;;		_convertirBCD
  1867 ;; This function uses a non-reentrant model
  1868 ;;
  1869                           
  1870                           
  1871                           ;psect for function _num_ascii
  1872  02E9                     _num_ascii:
  1873                           
  1874                           ;incstack = 0
  1875                           ; Regs used in _num_ascii: [wreg-fsr0h+status,2+status,0]
  1876                           ;num_ascii@num stored from wreg
  1877  02E9  1283               	bcf	3,5	;RP0=0, select bank0
  1878  02EA  1303               	bcf	3,6	;RP1=0, select bank0
  1879  02EB  00A2               	movwf	num_ascii@num
  1880  02EC                     l1686:
  1881                           
  1882                           ;C:/Users/Carlo/OneDrive/Documentos/Quinto Semestre/Digital2/Proyecto2/I2CPJ2.X/ASCII_NU
      +                          M.c: 4:  switch(num){
  1883  02EC  2B01               	goto	l1756
  1884  02ED                     l1688:
  1885                           
  1886                           ;C:/Users/Carlo/OneDrive/Documentos/Quinto Semestre/Digital2/Proyecto2/I2CPJ2.X/ASCII_NU
      +                          M.c: 6:   return 0x30;
  1887  02ED  3030               	movlw	48
  1888  02EE  2B29               	goto	l237
  1889  02EF                     l1700:
  1890                           
  1891                           ;C:/Users/Carlo/OneDrive/Documentos/Quinto Semestre/Digital2/Proyecto2/I2CPJ2.X/ASCII_NU
      +                          M.c: 14:   return 0x31;
  1892  02EF  3031               	movlw	49
  1893  02F0  2B29               	goto	l237
  1894  02F1                     l1706:
  1895                           
  1896                           ;C:/Users/Carlo/OneDrive/Documentos/Quinto Semestre/Digital2/Proyecto2/I2CPJ2.X/ASCII_NU
      +                          M.c: 18:   return 0x32;
  1897  02F1  3032               	movlw	50
  1898  02F2  2B29               	goto	l237
  1899  02F3                     l1712:
  1900                           
  1901                           ;C:/Users/Carlo/OneDrive/Documentos/Quinto Semestre/Digital2/Proyecto2/I2CPJ2.X/ASCII_NU
      +                          M.c: 22:   return 0x33;
  1902  02F3  3033               	movlw	51
  1903  02F4  2B29               	goto	l237
  1904  02F5                     l1718:
  1905                           
  1906                           ;C:/Users/Carlo/OneDrive/Documentos/Quinto Semestre/Digital2/Proyecto2/I2CPJ2.X/ASCII_NU
      +                          M.c: 26:   return 0x34;
  1907  02F5  3034               	movlw	52
  1908  02F6  2B29               	goto	l237
  1909  02F7                     l1724:
  1910                           
  1911                           ;C:/Users/Carlo/OneDrive/Documentos/Quinto Semestre/Digital2/Proyecto2/I2CPJ2.X/ASCII_NU
      +                          M.c: 30:   return 0x35;
  1912  02F7  3035               	movlw	53
  1913  02F8  2B29               	goto	l237
  1914  02F9                     l1730:
  1915                           
  1916                           ;C:/Users/Carlo/OneDrive/Documentos/Quinto Semestre/Digital2/Proyecto2/I2CPJ2.X/ASCII_NU
      +                          M.c: 34:   return 0x36;
  1917  02F9  3036               	movlw	54
  1918  02FA  2B29               	goto	l237
  1919  02FB                     l1736:
  1920                           
  1921                           ;C:/Users/Carlo/OneDrive/Documentos/Quinto Semestre/Digital2/Proyecto2/I2CPJ2.X/ASCII_NU
      +                          M.c: 38:   return 0x37;
  1922  02FB  3037               	movlw	55
  1923  02FC  2B29               	goto	l237
  1924  02FD                     l1742:
  1925                           
  1926                           ;C:/Users/Carlo/OneDrive/Documentos/Quinto Semestre/Digital2/Proyecto2/I2CPJ2.X/ASCII_NU
      +                          M.c: 42:   return 0x38;
  1927  02FD  3038               	movlw	56
  1928  02FE  2B29               	goto	l237
  1929  02FF                     l1748:
  1930                           
  1931                           ;C:/Users/Carlo/OneDrive/Documentos/Quinto Semestre/Digital2/Proyecto2/I2CPJ2.X/ASCII_NU
      +                          M.c: 46:   return 0x39;
  1932  02FF  3039               	movlw	57
  1933  0300  2B29               	goto	l237
  1934  0301                     l1756:
  1935  0301  0822               	movf	num_ascii@num,w
  1936  0302  00A0               	movwf	??_num_ascii
  1937  0303  01A1               	clrf	??_num_ascii+1
  1938                           
  1939                           ; Switch on 2 bytes has been partitioned into a top level switch of size 1, and 1 sub-sw
      +                          itches
  1940                           ; Switch size 1, requested type "simple"
  1941                           ; Number of cases is 1, Range of values is 0 to 0
  1942                           ; switch strategies available:
  1943                           ; Name         Instructions Cycles
  1944                           ; simple_byte            4     3 (average)
  1945                           ; direct_byte           11     8 (fixed)
  1946                           ; jumptable            260     6 (fixed)
  1947                           ;	Chosen strategy is simple_byte
  1948  0304  0821               	movf	??_num_ascii+1,w
  1949  0305  3A00               	xorlw	0	; case 0
  1950  0306  1903               	skipnz
  1951  0307  2B09               	goto	l1942
  1952  0308  2AED               	goto	l1688
  1953  0309                     l1942:
  1954                           
  1955                           ; Switch size 1, requested type "simple"
  1956                           ; Number of cases is 10, Range of values is 0 to 9
  1957                           ; switch strategies available:
  1958                           ; Name         Instructions Cycles
  1959                           ; simple_byte           31    16 (average)
  1960                           ; direct_byte           38     8 (fixed)
  1961                           ; jumptable            260     6 (fixed)
  1962                           ;	Chosen strategy is simple_byte
  1963  0309  0820               	movf	??_num_ascii,w
  1964  030A  3A00               	xorlw	0	; case 0
  1965  030B  1903               	skipnz
  1966  030C  2AED               	goto	l1688
  1967  030D  3A01               	xorlw	1	; case 1
  1968  030E  1903               	skipnz
  1969  030F  2AEF               	goto	l1700
  1970  0310  3A03               	xorlw	3	; case 2
  1971  0311  1903               	skipnz
  1972  0312  2AF1               	goto	l1706
  1973  0313  3A01               	xorlw	1	; case 3
  1974  0314  1903               	skipnz
  1975  0315  2AF3               	goto	l1712
  1976  0316  3A07               	xorlw	7	; case 4
  1977  0317  1903               	skipnz
  1978  0318  2AF5               	goto	l1718
  1979  0319  3A01               	xorlw	1	; case 5
  1980  031A  1903               	skipnz
  1981  031B  2AF7               	goto	l1724
  1982  031C  3A03               	xorlw	3	; case 6
  1983  031D  1903               	skipnz
  1984  031E  2AF9               	goto	l1730
  1985  031F  3A01               	xorlw	1	; case 7
  1986  0320  1903               	skipnz
  1987  0321  2AFB               	goto	l1736
  1988  0322  3A0F               	xorlw	15	; case 8
  1989  0323  1903               	skipnz
  1990  0324  2AFD               	goto	l1742
  1991  0325  3A01               	xorlw	1	; case 9
  1992  0326  1903               	skipnz
  1993  0327  2AFF               	goto	l1748
  1994  0328  2AED               	goto	l1688
  1995  0329                     l237:
  1996  0329  0008               	return
  1997  032A                     __end_of_num_ascii:
  1998                           
  1999                           	psect	text10
  2000  03F3                     __ptext10:	
  2001 ;; *************** function _USARTconf *****************
  2002 ;; Defined at:
  2003 ;;		line 3 in file "C:/Users/Carlo/OneDrive/Documentos/Quinto Semestre/Digital2/Proyecto2/I2CPJ2.X/usart.c"
  2004 ;; Parameters:    Size  Location     Type
  2005 ;;		None
  2006 ;; Auto vars:     Size  Location     Type
  2007 ;;		None
  2008 ;; Return value:  Size  Location     Type
  2009 ;;                  1    wreg      void 
  2010 ;; Registers used:
  2011 ;;		wreg, status,2
  2012 ;; Tracked objects:
  2013 ;;		On entry : 0/0
  2014 ;;		On exit  : 0/0
  2015 ;;		Unchanged: 0/0
  2016 ;; Data sizes:     COMMON   BANK0   BANK1   BANK3   BANK2
  2017 ;;      Params:         0       0       0       0       0
  2018 ;;      Locals:         0       0       0       0       0
  2019 ;;      Temps:          0       0       0       0       0
  2020 ;;      Totals:         0       0       0       0       0
  2021 ;;Total ram usage:        0 bytes
  2022 ;; Hardware stack levels used:    1
  2023 ;; Hardware stack levels required when called:    2
  2024 ;; This function calls:
  2025 ;;		Nothing
  2026 ;; This function is called by:
  2027 ;;		_main
  2028 ;; This function uses a non-reentrant model
  2029 ;;
  2030                           
  2031                           
  2032                           ;psect for function _USARTconf
  2033  03F3                     _USARTconf:
  2034  03F3                     l1796:	
  2035                           ;incstack = 0
  2036                           ; Regs used in _USARTconf: [wreg+status,2]
  2037                           
  2038                           
  2039                           ;C:/Users/Carlo/OneDrive/Documentos/Quinto Semestre/Digital2/Proyecto2/I2CPJ2.X/usart.c:
      +                           5:  TXSTAbits.SYNC = 0;
  2040  03F3  1683               	bsf	3,5	;RP0=1, select bank1
  2041  03F4  1303               	bcf	3,6	;RP1=0, select bank1
  2042  03F5  1218               	bcf	24,4	;volatile
  2043                           
  2044                           ;C:/Users/Carlo/OneDrive/Documentos/Quinto Semestre/Digital2/Proyecto2/I2CPJ2.X/usart.c:
      +                           6:  TXSTAbits.BRGH = 1;
  2045  03F6  1518               	bsf	24,2	;volatile
  2046                           
  2047                           ;C:/Users/Carlo/OneDrive/Documentos/Quinto Semestre/Digital2/Proyecto2/I2CPJ2.X/usart.c:
      +                           7:  TXSTAbits.TX9 = 0;
  2048  03F7  1318               	bcf	24,6	;volatile
  2049                           
  2050                           ;C:/Users/Carlo/OneDrive/Documentos/Quinto Semestre/Digital2/Proyecto2/I2CPJ2.X/usart.c:
      +                           8:  BAUDCTLbits.BRG16 = 0;
  2051  03F8  1683               	bsf	3,5	;RP0=1, select bank3
  2052  03F9  1703               	bsf	3,6	;RP1=1, select bank3
  2053  03FA  1187               	bcf	7,3	;volatile
  2054  03FB                     l1798:
  2055                           
  2056                           ;C:/Users/Carlo/OneDrive/Documentos/Quinto Semestre/Digital2/Proyecto2/I2CPJ2.X/usart.c:
      +                           9:  SPBRGH = 0;
  2057  03FB  1683               	bsf	3,5	;RP0=1, select bank1
  2058  03FC  1303               	bcf	3,6	;RP1=0, select bank1
  2059  03FD  019A               	clrf	26	;volatile
  2060  03FE                     l1800:
  2061                           
  2062                           ;C:/Users/Carlo/OneDrive/Documentos/Quinto Semestre/Digital2/Proyecto2/I2CPJ2.X/usart.c:
      +                           10:  SPBRG = 25;
  2063  03FE  3019               	movlw	25
  2064  03FF  0099               	movwf	25	;volatile
  2065  0400                     l1802:
  2066                           
  2067                           ;C:/Users/Carlo/OneDrive/Documentos/Quinto Semestre/Digital2/Proyecto2/I2CPJ2.X/usart.c:
      +                           12:  RCSTAbits.SPEN = 1;
  2068  0400  1283               	bcf	3,5	;RP0=0, select bank0
  2069  0401  1303               	bcf	3,6	;RP1=0, select bank0
  2070  0402  1798               	bsf	24,7	;volatile
  2071  0403                     l1804:
  2072                           
  2073                           ;C:/Users/Carlo/OneDrive/Documentos/Quinto Semestre/Digital2/Proyecto2/I2CPJ2.X/usart.c:
      +                           13:  RCSTAbits.RX9 = 0;
  2074  0403  1318               	bcf	24,6	;volatile
  2075  0404                     l1806:
  2076                           
  2077                           ;C:/Users/Carlo/OneDrive/Documentos/Quinto Semestre/Digital2/Proyecto2/I2CPJ2.X/usart.c:
      +                           14:  RCSTAbits.CREN = 1;
  2078  0404  1618               	bsf	24,4	;volatile
  2079  0405                     l1808:
  2080                           
  2081                           ;C:/Users/Carlo/OneDrive/Documentos/Quinto Semestre/Digital2/Proyecto2/I2CPJ2.X/usart.c:
      +                           16:  TXSTAbits.TXEN = 1;
  2082  0405  1683               	bsf	3,5	;RP0=1, select bank1
  2083  0406  1303               	bcf	3,6	;RP1=0, select bank1
  2084  0407  1698               	bsf	24,5	;volatile
  2085  0408                     l232:
  2086  0408  0008               	return
  2087  0409                     __end_of_USARTconf:
  2088                           
  2089                           	psect	text11
  2090  03C7                     __ptext11:	
  2091 ;; *************** function _Setup *****************
  2092 ;; Defined at:
  2093 ;;		line 133 in file "C:/Users/Carlo/OneDrive/Documentos/Quinto Semestre/Digital2/Proyecto2/I2CPJ2.X/main.c"
  2094 ;; Parameters:    Size  Location     Type
  2095 ;;		None
  2096 ;; Auto vars:     Size  Location     Type
  2097 ;;		None
  2098 ;; Return value:  Size  Location     Type
  2099 ;;                  1    wreg      void 
  2100 ;; Registers used:
  2101 ;;		wreg, status,2, status,0, btemp+1, pclath, cstack
  2102 ;; Tracked objects:
  2103 ;;		On entry : 0/0
  2104 ;;		On exit  : 0/0
  2105 ;;		Unchanged: 0/0
  2106 ;; Data sizes:     COMMON   BANK0   BANK1   BANK3   BANK2
  2107 ;;      Params:         0       0       0       0       0
  2108 ;;      Locals:         0       0       0       0       0
  2109 ;;      Temps:          0       0       0       0       0
  2110 ;;      Totals:         0       0       0       0       0
  2111 ;;Total ram usage:        0 bytes
  2112 ;; Hardware stack levels used:    1
  2113 ;; Hardware stack levels required when called:    4
  2114 ;; This function calls:
  2115 ;;		_I2C_Master_Init
  2116 ;; This function is called by:
  2117 ;;		_main
  2118 ;; This function uses a non-reentrant model
  2119 ;;
  2120                           
  2121                           
  2122                           ;psect for function _Setup
  2123  03C7                     _Setup:
  2124  03C7                     l1776:	
  2125                           ;incstack = 0
  2126                           ; Regs used in _Setup: [wreg+status,2+status,0+btemp+1+pclath+cstack]
  2127                           
  2128                           
  2129                           ;C:/Users/Carlo/OneDrive/Documentos/Quinto Semestre/Digital2/Proyecto2/I2CPJ2.X/main.c: 
      +                          135: 
  2130  03C7  1283               	bcf	3,5	;RP0=0, select bank0
  2131  03C8  1303               	bcf	3,6	;RP1=0, select bank0
  2132  03C9  0185               	clrf	5	;volatile
  2133                           
  2134                           ;C:/Users/Carlo/OneDrive/Documentos/Quinto Semestre/Digital2/Proyecto2/I2CPJ2.X/main.c: 
      +                          136:     I2C_Master_Start();
  2135  03CA  0186               	clrf	6	;volatile
  2136                           
  2137                           ;C:/Users/Carlo/OneDrive/Documentos/Quinto Semestre/Digital2/Proyecto2/I2CPJ2.X/main.c: 
      +                          137:     I2C_Master_Write(0xD1);
  2138  03CB  1683               	bsf	3,5	;RP0=1, select bank1
  2139  03CC  1303               	bcf	3,6	;RP1=0, select bank1
  2140  03CD  0186               	clrf	6	;volatile
  2141                           
  2142                           ;C:/Users/Carlo/OneDrive/Documentos/Quinto Semestre/Digital2/Proyecto2/I2CPJ2.X/main.c: 
      +                          138:     seg = I2C_Master_Read(1);
  2143  03CE  0187               	clrf	7	;volatile
  2144                           
  2145                           ;C:/Users/Carlo/OneDrive/Documentos/Quinto Semestre/Digital2/Proyecto2/I2CPJ2.X/main.c: 
      +                          139:     min = I2C_Master_Read(1);
  2146  03CF  1683               	bsf	3,5	;RP0=1, select bank3
  2147  03D0  1703               	bsf	3,6	;RP1=1, select bank3
  2148  03D1  0188               	clrf	8	;volatile
  2149                           
  2150                           ;C:/Users/Carlo/OneDrive/Documentos/Quinto Semestre/Digital2/Proyecto2/I2CPJ2.X/main.c: 
      +                          140:     hora = I2C_Master_Read(1);
  2151  03D2  0189               	clrf	9	;volatile
  2152  03D3                     l1778:
  2153                           
  2154                           ;C:/Users/Carlo/OneDrive/Documentos/Quinto Semestre/Digital2/Proyecto2/I2CPJ2.X/main.c: 
      +                          142:     dia = I2C_Master_Read(1);
  2155  03D3  110B               	bcf	11,2	;volatile
  2156  03D4                     l1780:
  2157                           
  2158                           ;C:/Users/Carlo/OneDrive/Documentos/Quinto Semestre/Digital2/Proyecto2/I2CPJ2.X/main.c: 
      +                          143:     mes = I2C_Master_Read(1);
  2159  03D4  30D7               	movlw	215
  2160  03D5  1683               	bsf	3,5	;RP0=1, select bank1
  2161  03D6  1303               	bcf	3,6	;RP1=0, select bank1
  2162  03D7  0081               	movwf	1	;volatile
  2163  03D8                     l1782:
  2164                           
  2165                           ;C:/Users/Carlo/OneDrive/Documentos/Quinto Semestre/Digital2/Proyecto2/I2CPJ2.X/main.c: 
      +                          144:     ano = I2C_Master_Read(0);
  2166  03D8  178B               	bsf	11,7	;volatile
  2167  03D9                     l1784:
  2168                           
  2169                           ;C:/Users/Carlo/OneDrive/Documentos/Quinto Semestre/Digital2/Proyecto2/I2CPJ2.X/main.c: 
      +                          145:     I2C_Master_Stop();
  2170  03D9  170B               	bsf	11,6	;volatile
  2171  03DA                     l1786:
  2172                           
  2173                           ;C:/Users/Carlo/OneDrive/Documentos/Quinto Semestre/Digital2/Proyecto2/I2CPJ2.X/main.c: 
      +                          146: 
  2174  03DA  168B               	bsf	11,5	;volatile
  2175  03DB                     l1788:
  2176                           
  2177                           ;C:/Users/Carlo/OneDrive/Documentos/Quinto Semestre/Digital2/Proyecto2/I2CPJ2.X/main.c: 
      +                          147: }
  2178  03DB  30FA               	movlw	250
  2179  03DC  1283               	bcf	3,5	;RP0=0, select bank0
  2180  03DD  1303               	bcf	3,6	;RP1=0, select bank0
  2181  03DE  0081               	movwf	1	;volatile
  2182  03DF                     l1790:
  2183                           
  2184                           ;C:/Users/Carlo/OneDrive/Documentos/Quinto Semestre/Digital2/Proyecto2/I2CPJ2.X/main.c: 
      +                          148: 
  2185  03DF  1683               	bsf	3,5	;RP0=1, select bank1
  2186  03E0  1303               	bcf	3,6	;RP1=0, select bank1
  2187  03E1  160C               	bsf	12,4	;volatile
  2188  03E2                     l1792:
  2189                           
  2190                           ;C:/Users/Carlo/OneDrive/Documentos/Quinto Semestre/Digital2/Proyecto2/I2CPJ2.X/main.c: 
      +                          149: 
  2191  03E2  168C               	bsf	12,5	;volatile
  2192  03E3                     l1794:
  2193                           
  2194                           ;C:/Users/Carlo/OneDrive/Documentos/Quinto Semestre/Digital2/Proyecto2/I2CPJ2.X/main.c: 
      +                          151: void convertirBCD(void){
  2195  03E3  3000               	movlw	0
  2196  03E4  1283               	bcf	3,5	;RP0=0, select bank0
  2197  03E5  1303               	bcf	3,6	;RP1=0, select bank0
  2198  03E6  00B1               	movwf	I2C_Master_Init@c+3
  2199  03E7  3001               	movlw	1
  2200  03E8  00B0               	movwf	I2C_Master_Init@c+2
  2201  03E9  3086               	movlw	134
  2202  03EA  00AF               	movwf	I2C_Master_Init@c+1
  2203  03EB  30A0               	movlw	160
  2204  03EC  00AE               	movwf	I2C_Master_Init@c
  2205  03ED  120A  118A  232A  120A  118A  	fcall	_I2C_Master_Init
  2206  03F2                     l121:
  2207  03F2  0008               	return
  2208  03F3                     __end_of_Setup:
  2209                           
  2210                           	psect	text12
  2211  032A                     __ptext12:	
  2212 ;; *************** function _I2C_Master_Init *****************
  2213 ;; Defined at:
  2214 ;;		line 16 in file "C:/Users/Carlo/OneDrive/Documentos/Quinto Semestre/Digital2/Proyecto2/I2CPJ2.X/I2C.c"
  2215 ;; Parameters:    Size  Location     Type
  2216 ;;  c               4   14[BANK0 ] const unsigned long 
  2217 ;; Auto vars:     Size  Location     Type
  2218 ;;		None
  2219 ;; Return value:  Size  Location     Type
  2220 ;;                  1    wreg      void 
  2221 ;; Registers used:
  2222 ;;		wreg, status,2, status,0, btemp+1, pclath, cstack
  2223 ;; Tracked objects:
  2224 ;;		On entry : 0/0
  2225 ;;		On exit  : 0/0
  2226 ;;		Unchanged: 0/0
  2227 ;; Data sizes:     COMMON   BANK0   BANK1   BANK3   BANK2
  2228 ;;      Params:         0       4       0       0       0
  2229 ;;      Locals:         0       0       0       0       0
  2230 ;;      Temps:          0       4       0       0       0
  2231 ;;      Totals:         0       8       0       0       0
  2232 ;;Total ram usage:        8 bytes
  2233 ;; Hardware stack levels used:    1
  2234 ;; Hardware stack levels required when called:    3
  2235 ;; This function calls:
  2236 ;;		___lldiv
  2237 ;; This function is called by:
  2238 ;;		_Setup
  2239 ;; This function uses a non-reentrant model
  2240 ;;
  2241                           
  2242                           
  2243                           ;psect for function _I2C_Master_Init
  2244  032A                     _I2C_Master_Init:
  2245  032A                     l1646:	
  2246                           ;incstack = 0
  2247                           ; Regs used in _I2C_Master_Init: [wreg+status,2+status,0+btemp+1+pclath+cstack]
  2248                           
  2249                           
  2250                           ;C:/Users/Carlo/OneDrive/Documentos/Quinto Semestre/Digital2/Proyecto2/I2CPJ2.X/I2C.c: 1
      +                          6: void I2C_Master_Init(const unsigned long c);C:/Users/Carlo/OneDrive/Documentos/Quinto
      +                           Semestre/Digital2/Proyecto2/I2CPJ2.X/I2C.c: 17: {;C:/Users/Carlo/OneDrive/Documentos/Qu
      +                          into Semestre/Digital2/Proyecto2/I2CPJ2.X/I2C.c: 18:     SSPCON = 0b00101000;
  2251  032A  3028               	movlw	40
  2252  032B  1283               	bcf	3,5	;RP0=0, select bank0
  2253  032C  1303               	bcf	3,6	;RP1=0, select bank0
  2254  032D  0094               	movwf	20	;volatile
  2255  032E                     l1648:
  2256                           
  2257                           ;C:/Users/Carlo/OneDrive/Documentos/Quinto Semestre/Digital2/Proyecto2/I2CPJ2.X/I2C.c: 1
      +                          9:     SSPCON2 = 0;
  2258  032E  1683               	bsf	3,5	;RP0=1, select bank1
  2259  032F  1303               	bcf	3,6	;RP1=0, select bank1
  2260  0330  0191               	clrf	17	;volatile
  2261  0331                     l1650:
  2262                           
  2263                           ;C:/Users/Carlo/OneDrive/Documentos/Quinto Semestre/Digital2/Proyecto2/I2CPJ2.X/I2C.c: 2
      +                          0:     SSPADD = (4000000/(4*c))-1;
  2264  0331  1283               	bcf	3,5	;RP0=0, select bank0
  2265  0332  1303               	bcf	3,6	;RP1=0, select bank0
  2266  0333  082E               	movf	I2C_Master_Init@c,w
  2267  0334  00B2               	movwf	??_I2C_Master_Init
  2268  0335  082F               	movf	I2C_Master_Init@c+1,w
  2269  0336  00B3               	movwf	??_I2C_Master_Init+1
  2270  0337  0830               	movf	I2C_Master_Init@c+2,w
  2271  0338  00B4               	movwf	??_I2C_Master_Init+2
  2272  0339  0831               	movf	I2C_Master_Init@c+3,w
  2273  033A  00B5               	movwf	??_I2C_Master_Init+3
  2274  033B  3002               	movlw	2
  2275  033C                     u585:
  2276  033C  1003               	clrc
  2277  033D  0DB2               	rlf	??_I2C_Master_Init,f
  2278  033E  0DB3               	rlf	??_I2C_Master_Init+1,f
  2279  033F  0DB4               	rlf	??_I2C_Master_Init+2,f
  2280  0340  0DB5               	rlf	??_I2C_Master_Init+3,f
  2281  0341                     u580:
  2282  0341  3EFF               	addlw	-1
  2283  0342  1D03               	skipz
  2284  0343  2B3C               	goto	u585
  2285  0344  0835               	movf	??_I2C_Master_Init+3,w
  2286  0345  00A3               	movwf	___lldiv@divisor+3
  2287  0346  0834               	movf	??_I2C_Master_Init+2,w
  2288  0347  00A2               	movwf	___lldiv@divisor+2
  2289  0348  0833               	movf	??_I2C_Master_Init+1,w
  2290  0349  00A1               	movwf	___lldiv@divisor+1
  2291  034A  0832               	movf	??_I2C_Master_Init,w
  2292  034B  00A0               	movwf	___lldiv@divisor
  2293  034C  3000               	movlw	0
  2294  034D  00A7               	movwf	___lldiv@dividend+3
  2295  034E  303D               	movlw	61
  2296  034F  00A6               	movwf	___lldiv@dividend+2
  2297  0350  3009               	movlw	9
  2298  0351  00A5               	movwf	___lldiv@dividend+1
  2299  0352  3000               	movlw	0
  2300  0353  00A4               	movwf	___lldiv@dividend
  2301  0354  120A  118A  21F8  120A  118A  	fcall	___lldiv
  2302  0359  1283               	bcf	3,5	;RP0=0, select bank0
  2303  035A  1303               	bcf	3,6	;RP1=0, select bank0
  2304  035B  0820               	movf	?___lldiv,w
  2305  035C  3EFF               	addlw	255
  2306  035D  1683               	bsf	3,5	;RP0=1, select bank1
  2307  035E  1303               	bcf	3,6	;RP1=0, select bank1
  2308  035F  0093               	movwf	19	;volatile
  2309  0360                     l1652:
  2310                           
  2311                           ;C:/Users/Carlo/OneDrive/Documentos/Quinto Semestre/Digital2/Proyecto2/I2CPJ2.X/I2C.c: 2
      +                          1:     SSPSTAT = 0;
  2312  0360  0194               	clrf	20	;volatile
  2313  0361                     l1654:
  2314                           
  2315                           ;C:/Users/Carlo/OneDrive/Documentos/Quinto Semestre/Digital2/Proyecto2/I2CPJ2.X/I2C.c: 2
      +                          2:     TRISCbits.TRISC3 = 1;
  2316  0361  1587               	bsf	7,3	;volatile
  2317  0362                     l1656:
  2318                           
  2319                           ;C:/Users/Carlo/OneDrive/Documentos/Quinto Semestre/Digital2/Proyecto2/I2CPJ2.X/I2C.c: 2
      +                          3:     TRISCbits.TRISC4 = 1;
  2320  0362  1607               	bsf	7,4	;volatile
  2321  0363                     l182:
  2322  0363  0008               	return
  2323  0364                     __end_of_I2C_Master_Init:
  2324                           
  2325                           	psect	text13
  2326  01F8                     __ptext13:	
  2327 ;; *************** function ___lldiv *****************
  2328 ;; Defined at:
  2329 ;;		line 5 in file "C:\Program Files\Microchip\xc8\v2.20\pic\sources\c90\common\__lldiv.c"
  2330 ;; Parameters:    Size  Location     Type
  2331 ;;  divisor         4    0[BANK0 ] unsigned long 
  2332 ;;  dividend        4    4[BANK0 ] unsigned long 
  2333 ;; Auto vars:     Size  Location     Type
  2334 ;;  quotient        4    9[BANK0 ] unsigned long 
  2335 ;;  counter         1   13[BANK0 ] unsigned char 
  2336 ;; Return value:  Size  Location     Type
  2337 ;;                  4    0[BANK0 ] unsigned long 
  2338 ;; Registers used:
  2339 ;;		wreg, status,2, status,0, btemp+1
  2340 ;; Tracked objects:
  2341 ;;		On entry : 0/0
  2342 ;;		On exit  : 0/0
  2343 ;;		Unchanged: 0/0
  2344 ;; Data sizes:     COMMON   BANK0   BANK1   BANK3   BANK2
  2345 ;;      Params:         0       8       0       0       0
  2346 ;;      Locals:         0       5       0       0       0
  2347 ;;      Temps:          0       1       0       0       0
  2348 ;;      Totals:         0      14       0       0       0
  2349 ;;Total ram usage:       14 bytes
  2350 ;; Hardware stack levels used:    1
  2351 ;; Hardware stack levels required when called:    2
  2352 ;; This function calls:
  2353 ;;		Nothing
  2354 ;; This function is called by:
  2355 ;;		_I2C_Master_Init
  2356 ;; This function uses a non-reentrant model
  2357 ;;
  2358                           
  2359                           
  2360                           ;psect for function ___lldiv
  2361  01F8                     ___lldiv:
  2362  01F8                     l1620:	
  2363                           ;incstack = 0
  2364                           ; Regs used in ___lldiv: [wreg+status,2+status,0+btemp+1]
  2365                           
  2366  01F8  3000               	movlw	0
  2367  01F9  1283               	bcf	3,5	;RP0=0, select bank0
  2368  01FA  1303               	bcf	3,6	;RP1=0, select bank0
  2369  01FB  00AC               	movwf	___lldiv@quotient+3
  2370  01FC  3000               	movlw	0
  2371  01FD  00AB               	movwf	___lldiv@quotient+2
  2372  01FE  3000               	movlw	0
  2373  01FF  00AA               	movwf	___lldiv@quotient+1
  2374  0200  3000               	movlw	0
  2375  0201  00A9               	movwf	___lldiv@quotient
  2376  0202  0823               	movf	___lldiv@divisor+3,w
  2377  0203  0422               	iorwf	___lldiv@divisor+2,w
  2378  0204  0421               	iorwf	___lldiv@divisor+1,w
  2379  0205  0420               	iorwf	___lldiv@divisor,w
  2380  0206  1903               	skipnz
  2381  0207  2A09               	goto	u511
  2382  0208  2A0A               	goto	u510
  2383  0209                     u511:
  2384  0209  2A57               	goto	l1642
  2385  020A                     u510:
  2386  020A                     l1622:
  2387  020A  01AD               	clrf	___lldiv@counter
  2388  020B  0AAD               	incf	___lldiv@counter,f
  2389  020C  2A1A               	goto	l1628
  2390  020D                     l1624:
  2391  020D  3001               	movlw	1
  2392  020E  00A8               	movwf	??___lldiv
  2393  020F                     u525:
  2394  020F  1003               	clrc
  2395  0210  0DA0               	rlf	___lldiv@divisor,f
  2396  0211  0DA1               	rlf	___lldiv@divisor+1,f
  2397  0212  0DA2               	rlf	___lldiv@divisor+2,f
  2398  0213  0DA3               	rlf	___lldiv@divisor+3,f
  2399  0214  0BA8               	decfsz	??___lldiv,f
  2400  0215  2A0F               	goto	u525
  2401  0216                     l1626:
  2402  0216  3001               	movlw	1
  2403  0217  00FF               	movwf	btemp+1
  2404  0218  087F               	movf	btemp+1,w
  2405  0219  07AD               	addwf	___lldiv@counter,f
  2406  021A                     l1628:
  2407  021A  1FA3               	btfss	___lldiv@divisor+3,7
  2408  021B  2A1D               	goto	u531
  2409  021C  2A1E               	goto	u530
  2410  021D                     u531:
  2411  021D  2A0D               	goto	l1624
  2412  021E                     u530:
  2413  021E                     l1630:
  2414  021E  3001               	movlw	1
  2415  021F  00A8               	movwf	??___lldiv
  2416  0220                     u545:
  2417  0220  1003               	clrc
  2418  0221  0DA9               	rlf	___lldiv@quotient,f
  2419  0222  0DAA               	rlf	___lldiv@quotient+1,f
  2420  0223  0DAB               	rlf	___lldiv@quotient+2,f
  2421  0224  0DAC               	rlf	___lldiv@quotient+3,f
  2422  0225  0BA8               	decfsz	??___lldiv,f
  2423  0226  2A20               	goto	u545
  2424  0227                     l1632:
  2425  0227  0823               	movf	___lldiv@divisor+3,w
  2426  0228  0227               	subwf	___lldiv@dividend+3,w
  2427  0229  1D03               	skipz
  2428  022A  2A35               	goto	u555
  2429  022B  0822               	movf	___lldiv@divisor+2,w
  2430  022C  0226               	subwf	___lldiv@dividend+2,w
  2431  022D  1D03               	skipz
  2432  022E  2A35               	goto	u555
  2433  022F  0821               	movf	___lldiv@divisor+1,w
  2434  0230  0225               	subwf	___lldiv@dividend+1,w
  2435  0231  1D03               	skipz
  2436  0232  2A35               	goto	u555
  2437  0233  0820               	movf	___lldiv@divisor,w
  2438  0234  0224               	subwf	___lldiv@dividend,w
  2439  0235                     u555:
  2440  0235  1C03               	skipc
  2441  0236  2A38               	goto	u551
  2442  0237  2A39               	goto	u550
  2443  0238                     u551:
  2444  0238  2A48               	goto	l1638
  2445  0239                     u550:
  2446  0239                     l1634:
  2447  0239  0820               	movf	___lldiv@divisor,w
  2448  023A  02A4               	subwf	___lldiv@dividend,f
  2449  023B  0821               	movf	___lldiv@divisor+1,w
  2450  023C  1C03               	skipc
  2451  023D  0F21               	incfsz	___lldiv@divisor+1,w
  2452  023E  02A5               	subwf	___lldiv@dividend+1,f
  2453  023F  0822               	movf	___lldiv@divisor+2,w
  2454  0240  1C03               	skipc
  2455  0241  0F22               	incfsz	___lldiv@divisor+2,w
  2456  0242  02A6               	subwf	___lldiv@dividend+2,f
  2457  0243  0823               	movf	___lldiv@divisor+3,w
  2458  0244  1C03               	skipc
  2459  0245  0F23               	incfsz	___lldiv@divisor+3,w
  2460  0246  02A7               	subwf	___lldiv@dividend+3,f
  2461  0247                     l1636:
  2462  0247  1429               	bsf	___lldiv@quotient,0
  2463  0248                     l1638:
  2464  0248  3001               	movlw	1
  2465  0249                     u565:
  2466  0249  1003               	clrc
  2467  024A  0CA3               	rrf	___lldiv@divisor+3,f
  2468  024B  0CA2               	rrf	___lldiv@divisor+2,f
  2469  024C  0CA1               	rrf	___lldiv@divisor+1,f
  2470  024D  0CA0               	rrf	___lldiv@divisor,f
  2471  024E  3EFF               	addlw	-1
  2472  024F  1D03               	skipz
  2473  0250  2A49               	goto	u565
  2474  0251                     l1640:
  2475  0251  3001               	movlw	1
  2476  0252  02AD               	subwf	___lldiv@counter,f
  2477  0253  1D03               	btfss	3,2
  2478  0254  2A56               	goto	u571
  2479  0255  2A57               	goto	u570
  2480  0256                     u571:
  2481  0256  2A1E               	goto	l1630
  2482  0257                     u570:
  2483  0257                     l1642:
  2484  0257  082C               	movf	___lldiv@quotient+3,w
  2485  0258  00A3               	movwf	?___lldiv+3
  2486  0259  082B               	movf	___lldiv@quotient+2,w
  2487  025A  00A2               	movwf	?___lldiv+2
  2488  025B  082A               	movf	___lldiv@quotient+1,w
  2489  025C  00A1               	movwf	?___lldiv+1
  2490  025D  0829               	movf	___lldiv@quotient,w
  2491  025E  00A0               	movwf	?___lldiv
  2492  025F                     l370:
  2493  025F  0008               	return
  2494  0260                     __end_of___lldiv:
  2495                           
  2496                           	psect	text14
  2497  0260                     __ptext14:	
  2498 ;; *************** function _ISR *****************
  2499 ;; Defined at:
  2500 ;;		line 84 in file "C:/Users/Carlo/OneDrive/Documentos/Quinto Semestre/Digital2/Proyecto2/I2CPJ2.X/main.c"
  2501 ;; Parameters:    Size  Location     Type
  2502 ;;		None
  2503 ;; Auto vars:     Size  Location     Type
  2504 ;;		None
  2505 ;; Return value:  Size  Location     Type
  2506 ;;                  1    wreg      void 
  2507 ;; Registers used:
  2508 ;;		wreg, fsr0l, fsr0h, status,2, status,0, btemp+1, pclath, cstack
  2509 ;; Tracked objects:
  2510 ;;		On entry : 0/0
  2511 ;;		On exit  : 0/0
  2512 ;;		Unchanged: 0/0
  2513 ;; Data sizes:     COMMON   BANK0   BANK1   BANK3   BANK2
  2514 ;;      Params:         0       0       0       0       0
  2515 ;;      Locals:         0       0       0       0       0
  2516 ;;      Temps:          4       0       0       0       0
  2517 ;;      Totals:         4       0       0       0       0
  2518 ;;Total ram usage:        4 bytes
  2519 ;; Hardware stack levels used:    1
  2520 ;; Hardware stack levels required when called:    1
  2521 ;; This function calls:
  2522 ;;		_envio
  2523 ;; This function is called by:
  2524 ;;		Interrupt level 1
  2525 ;; This function uses a non-reentrant model
  2526 ;;
  2527                           
  2528                           
  2529                           ;psect for function _ISR
  2530  0260                     _ISR:
  2531  0260                     i1l1478:
  2532                           
  2533                           ;C:/Users/Carlo/OneDrive/Documentos/Quinto Semestre/Digital2/Proyecto2/I2CPJ2.X/main.c: 
      +                          85:     }
  2534  0260  0370               	decf	_dato_esp,w
  2535  0261  1D03               	btfss	3,2
  2536  0262  2A64               	goto	u42_21
  2537  0263  2A65               	goto	u42_20
  2538  0264                     u42_21:
  2539  0264  2A77               	goto	i1l1488
  2540  0265                     u42_20:
  2541  0265                     i1l1480:
  2542                           
  2543                           ;C:/Users/Carlo/OneDrive/Documentos/Quinto Semestre/Digital2/Proyecto2/I2CPJ2.X/main.c: 
      +                          86: }
  2544  0265  1E0C               	btfss	12,4	;volatile
  2545  0266  2A68               	goto	u43_21
  2546  0267  2A69               	goto	u43_20
  2547  0268                     u43_21:
  2548  0268  2A77               	goto	i1l1488
  2549  0269                     u43_20:
  2550  0269                     i1l1482:
  2551                           
  2552                           ;C:/Users/Carlo/OneDrive/Documentos/Quinto Semestre/Digital2/Proyecto2/I2CPJ2.X/main.c: 
      +                          87: 
  2553  0269  1683               	bsf	3,5	;RP0=1, select bank1
  2554  026A  1303               	bcf	3,6	;RP1=0, select bank1
  2555  026B  120C               	bcf	12,4	;volatile
  2556  026C                     i1l1484:
  2557                           
  2558                           ;C:/Users/Carlo/OneDrive/Documentos/Quinto Semestre/Digital2/Proyecto2/I2CPJ2.X/main.c: 
      +                          88: 
  2559  026C  3001               	movlw	1
  2560  026D  00FF               	movwf	btemp+1
  2561  026E  087F               	movf	btemp+1,w
  2562  026F  1283               	bcf	3,5	;RP0=0, select bank0
  2563  0270  1303               	bcf	3,6	;RP1=0, select bank0
  2564  0271  07B9               	addwf	_toggleTX,f
  2565  0272                     i1l1486:
  2566                           
  2567                           ;C:/Users/Carlo/OneDrive/Documentos/Quinto Semestre/Digital2/Proyecto2/I2CPJ2.X/main.c: 
      +                          89: 
  2568  0272  120A  118A  2183  120A  118A  	fcall	_envio
  2569  0277                     i1l1488:
  2570                           
  2571                           ;C:/Users/Carlo/OneDrive/Documentos/Quinto Semestre/Digital2/Proyecto2/I2CPJ2.X/main.c: 
      +                          92:     PORTA = 0;
  2572  0277  1D0B               	btfss	11,2	;volatile
  2573  0278  2A7A               	goto	u44_21
  2574  0279  2A7B               	goto	u44_20
  2575  027A                     u44_21:
  2576  027A  2A90               	goto	i1l1502
  2577  027B                     u44_20:
  2578  027B                     i1l1490:
  2579                           
  2580                           ;C:/Users/Carlo/OneDrive/Documentos/Quinto Semestre/Digital2/Proyecto2/I2CPJ2.X/main.c: 
      +                          93:     PORTB = 0;
  2581  027B  110B               	bcf	11,2	;volatile
  2582  027C                     i1l1492:
  2583                           
  2584                           ;C:/Users/Carlo/OneDrive/Documentos/Quinto Semestre/Digital2/Proyecto2/I2CPJ2.X/main.c: 
      +                          94:     TRISB = 0;
  2585  027C  3064               	movlw	100
  2586  027D  1283               	bcf	3,5	;RP0=0, select bank0
  2587  027E  1303               	bcf	3,6	;RP1=0, select bank0
  2588  027F  0081               	movwf	1	;volatile
  2589  0280                     i1l1494:
  2590                           
  2591                           ;C:/Users/Carlo/OneDrive/Documentos/Quinto Semestre/Digital2/Proyecto2/I2CPJ2.X/main.c: 
      +                          95:     TRISC = 0;
  2592  0280  3001               	movlw	1
  2593  0281  00FF               	movwf	btemp+1
  2594  0282  087F               	movf	btemp+1,w
  2595  0283  07C9               	addwf	_var,f
  2596  0284                     i1l1496:
  2597                           
  2598                           ;C:/Users/Carlo/OneDrive/Documentos/Quinto Semestre/Digital2/Proyecto2/I2CPJ2.X/main.c: 
      +                          96:     ANSEL = 0;
  2599  0284  3002               	movlw	2
  2600  0285  0649               	xorwf	_var,w
  2601  0286  1D03               	btfss	3,2
  2602  0287  2A89               	goto	u45_21
  2603  0288  2A8A               	goto	u45_20
  2604  0289                     u45_21:
  2605  0289  2A90               	goto	i1l1502
  2606  028A                     u45_20:
  2607  028A                     i1l1498:
  2608                           
  2609                           ;C:/Users/Carlo/OneDrive/Documentos/Quinto Semestre/Digital2/Proyecto2/I2CPJ2.X/main.c: 
      +                          97:     ANSELH = 0;
  2610  028A  1683               	bsf	3,5	;RP0=1, select bank1
  2611  028B  1303               	bcf	3,6	;RP1=0, select bank1
  2612  028C  160C               	bsf	12,4	;volatile
  2613  028D                     i1l1500:
  2614                           
  2615                           ;C:/Users/Carlo/OneDrive/Documentos/Quinto Semestre/Digital2/Proyecto2/I2CPJ2.X/main.c: 
      +                          98: 
  2616  028D  1283               	bcf	3,5	;RP0=0, select bank0
  2617  028E  1303               	bcf	3,6	;RP1=0, select bank0
  2618  028F  01C9               	clrf	_var
  2619  0290                     i1l1502:
  2620                           
  2621                           ;C:/Users/Carlo/OneDrive/Documentos/Quinto Semestre/Digital2/Proyecto2/I2CPJ2.X/main.c: 
      +                          101:     INTCONbits.GIE = 1;
  2622  0290  1283               	bcf	3,5	;RP0=0, select bank0
  2623  0291  1303               	bcf	3,6	;RP1=0, select bank0
  2624  0292  1E8C               	btfss	12,5	;volatile
  2625  0293  2A95               	goto	u46_21
  2626  0294  2A96               	goto	u46_20
  2627  0295                     u46_21:
  2628  0295  2A9A               	goto	i1l108
  2629  0296                     u46_20:
  2630  0296                     i1l1504:
  2631                           
  2632                           ;C:/Users/Carlo/OneDrive/Documentos/Quinto Semestre/Digital2/Proyecto2/I2CPJ2.X/main.c: 
      +                          102:     INTCONbits.PEIE = 1;
  2633  0296  081A               	movf	26,w	;volatile
  2634  0297  00FF               	movwf	btemp+1
  2635  0298  087F               	movf	btemp+1,w
  2636  0299  00F0               	movwf	_dato_esp
  2637  029A                     i1l108:
  2638  029A  087B               	movf	??_ISR+3,w
  2639  029B  00FF               	movwf	btemp+1
  2640  029C  087A               	movf	??_ISR+2,w
  2641  029D  008A               	movwf	10
  2642  029E  0879               	movf	??_ISR+1,w
  2643  029F  0084               	movwf	4
  2644  02A0  0E78               	swapf	??_ISR^(0+4294967168),w
  2645  02A1  0083               	movwf	3
  2646  02A2  0EFE               	swapf	btemp,f
  2647  02A3  0E7E               	swapf	btemp,w
  2648  02A4  0009               	retfie
  2649  02A5                     __end_of_ISR:
  2650                           
  2651                           	psect	intentry
  2652  0004                     __pintentry:	
  2653                           ;incstack = 0
  2654                           ; Regs used in _ISR: [wreg-fsr0h+status,2+status,0+btemp+1+pclath+cstack]
  2655                           
  2656  0004                     interrupt_function:
  2657  007E                     saved_w	set	btemp
  2658  0004  00FE               	movwf	btemp
  2659  0005  0E03               	swapf	3,w
  2660  0006  00F8               	movwf	??_ISR
  2661  0007  0804               	movf	4,w
  2662  0008  00F9               	movwf	??_ISR+1
  2663  0009  080A               	movf	10,w
  2664  000A  00FA               	movwf	??_ISR+2
  2665  000B  1283               	bcf	3,5	;RP0=0, select bank0
  2666  000C  1303               	bcf	3,6	;RP1=0, select bank0
  2667  000D  087F               	movf	btemp+1,w
  2668  000E  00FB               	movwf	??_ISR+3
  2669  000F  120A  118A  2A60   	ljmp	_ISR
  2670                           
  2671                           	psect	text15
  2672  0183                     __ptext15:	
  2673 ;; *************** function _envio *****************
  2674 ;; Defined at:
  2675 ;;		line 211 in file "C:/Users/Carlo/OneDrive/Documentos/Quinto Semestre/Digital2/Proyecto2/I2CPJ2.X/main.c"
  2676 ;; Parameters:    Size  Location     Type
  2677 ;;		None
  2678 ;; Auto vars:     Size  Location     Type
  2679 ;;		None
  2680 ;; Return value:  Size  Location     Type
  2681 ;;                  1    wreg      void 
  2682 ;; Registers used:
  2683 ;;		wreg, fsr0l, fsr0h, status,2, status,0
  2684 ;; Tracked objects:
  2685 ;;		On entry : 0/0
  2686 ;;		On exit  : 0/0
  2687 ;;		Unchanged: 0/0
  2688 ;; Data sizes:     COMMON   BANK0   BANK1   BANK3   BANK2
  2689 ;;      Params:         0       0       0       0       0
  2690 ;;      Locals:         0       0       0       0       0
  2691 ;;      Temps:          2       0       0       0       0
  2692 ;;      Totals:         2       0       0       0       0
  2693 ;;Total ram usage:        2 bytes
  2694 ;; Hardware stack levels used:    1
  2695 ;; This function calls:
  2696 ;;		Nothing
  2697 ;; This function is called by:
  2698 ;;		_ISR
  2699 ;; This function uses a non-reentrant model
  2700 ;;
  2701                           
  2702                           
  2703                           ;psect for function _envio
  2704  0183                     _envio:
  2705  0183                     i1l1378:	
  2706                           ;incstack = 0
  2707                           ; Regs used in _envio: [wreg-fsr0h+status,2+status,0]
  2708                           
  2709                           
  2710                           ;C:/Users/Carlo/OneDrive/Documentos/Quinto Semestre/Digital2/Proyecto2/I2CPJ2.X/main.c: 
      +                          212:         case 15:
  2711  0183  29B5               	goto	i1l1420
  2712  0184                     i1l1380:
  2713                           
  2714                           ;C:/Users/Carlo/OneDrive/Documentos/Quinto Semestre/Digital2/Proyecto2/I2CPJ2.X/main.c: 
      +                          214:             break;
  2715  0184  0842               	movf	_diaD,w
  2716  0185  0099               	movwf	25	;volatile
  2717                           
  2718                           ;C:/Users/Carlo/OneDrive/Documentos/Quinto Semestre/Digital2/Proyecto2/I2CPJ2.X/main.c: 
      +                          215:         case 16:
  2719  0186  29F7               	goto	i1l153
  2720  0187                     i1l1382:
  2721                           
  2722                           ;C:/Users/Carlo/OneDrive/Documentos/Quinto Semestre/Digital2/Proyecto2/I2CPJ2.X/main.c: 
      +                          217:             break;
  2723  0187  0841               	movf	_diaU,w
  2724  0188  0099               	movwf	25	;volatile
  2725                           
  2726                           ;C:/Users/Carlo/OneDrive/Documentos/Quinto Semestre/Digital2/Proyecto2/I2CPJ2.X/main.c: 
      +                          218:         case 17:
  2727  0189  29F7               	goto	i1l153
  2728  018A                     i1l1384:
  2729                           
  2730                           ;C:/Users/Carlo/OneDrive/Documentos/Quinto Semestre/Digital2/Proyecto2/I2CPJ2.X/main.c: 
      +                          220:             break;
  2731  018A  302F               	movlw	47
  2732  018B  0099               	movwf	25	;volatile
  2733                           
  2734                           ;C:/Users/Carlo/OneDrive/Documentos/Quinto Semestre/Digital2/Proyecto2/I2CPJ2.X/main.c: 
      +                          221:         case 18:
  2735  018C  29F7               	goto	i1l153
  2736  018D                     i1l1386:
  2737                           
  2738                           ;C:/Users/Carlo/OneDrive/Documentos/Quinto Semestre/Digital2/Proyecto2/I2CPJ2.X/main.c: 
      +                          223:             toggleTX = 0;
  2739  018D  0840               	movf	_mesD,w
  2740  018E  0099               	movwf	25	;volatile
  2741                           
  2742                           ;C:/Users/Carlo/OneDrive/Documentos/Quinto Semestre/Digital2/Proyecto2/I2CPJ2.X/main.c: 
      +                          224:             break;
  2743  018F  29F7               	goto	i1l153
  2744  0190                     i1l1388:
  2745                           
  2746                           ;C:/Users/Carlo/OneDrive/Documentos/Quinto Semestre/Digital2/Proyecto2/I2CPJ2.X/main.c: 
      +                          226: 
  2747  0190  083F               	movf	_mesU,w
  2748  0191  0099               	movwf	25	;volatile
  2749                           
  2750                           ;C:/Users/Carlo/OneDrive/Documentos/Quinto Semestre/Digital2/Proyecto2/I2CPJ2.X/main.c: 
      +                          227:     }
  2751  0192  29F7               	goto	i1l153
  2752  0193                     i1l1392:
  2753  0193  083D               	movf	_anoD,w
  2754  0194  0099               	movwf	25	;volatile
  2755  0195  29F7               	goto	i1l153
  2756  0196                     i1l1394:
  2757  0196  083C               	movf	_anoU,w
  2758  0197  0099               	movwf	25	;volatile
  2759  0198  29F7               	goto	i1l153
  2760  0199                     i1l1396:
  2761  0199  3020               	movlw	32
  2762  019A  0099               	movwf	25	;volatile
  2763  019B  29F7               	goto	i1l153
  2764  019C                     i1l1398:
  2765  019C  0844               	movf	_horaD,w
  2766  019D  0099               	movwf	25	;volatile
  2767  019E  29F7               	goto	i1l153
  2768  019F                     i1l1400:
  2769  019F  0843               	movf	_horaU,w
  2770  01A0  0099               	movwf	25	;volatile
  2771  01A1  29F7               	goto	i1l153
  2772  01A2                     i1l1402:
  2773  01A2  303A               	movlw	58
  2774  01A3  0099               	movwf	25	;volatile
  2775  01A4  29F7               	goto	i1l153
  2776  01A5                     i1l1404:
  2777  01A5  0846               	movf	_minD,w
  2778  01A6  0099               	movwf	25	;volatile
  2779  01A7  29F7               	goto	i1l153
  2780  01A8                     i1l1406:
  2781  01A8  0845               	movf	_minU,w
  2782  01A9  0099               	movwf	25	;volatile
  2783  01AA  29F7               	goto	i1l153
  2784  01AB                     i1l1410:
  2785  01AB  0848               	movf	_segD,w
  2786  01AC  0099               	movwf	25	;volatile
  2787  01AD  29F7               	goto	i1l153
  2788  01AE                     i1l1412:
  2789  01AE  0847               	movf	_segU,w
  2790  01AF  0099               	movwf	25	;volatile
  2791  01B0  29F7               	goto	i1l153
  2792  01B1                     i1l1414:
  2793  01B1  300A               	movlw	10
  2794  01B2  0099               	movwf	25	;volatile
  2795  01B3                     i1l1416:
  2796  01B3  01B9               	clrf	_toggleTX
  2797  01B4  29F7               	goto	i1l153
  2798  01B5                     i1l1420:
  2799  01B5  1283               	bcf	3,5	;RP0=0, select bank0
  2800  01B6  1303               	bcf	3,6	;RP1=0, select bank0
  2801  01B7  0839               	movf	_toggleTX,w
  2802  01B8  00F6               	movwf	??_envio
  2803  01B9  01F7               	clrf	??_envio+1
  2804                           
  2805                           ; Switch on 2 bytes has been partitioned into a top level switch of size 1, and 1 sub-sw
      +                          itches
  2806                           ; Switch size 1, requested type "simple"
  2807                           ; Number of cases is 1, Range of values is 0 to 0
  2808                           ; switch strategies available:
  2809                           ; Name         Instructions Cycles
  2810                           ; simple_byte            4     3 (average)
  2811                           ; direct_byte           11     8 (fixed)
  2812                           ; jumptable            260     6 (fixed)
  2813                           ;	Chosen strategy is simple_byte
  2814  01BA  0877               	movf	??_envio+1,w
  2815  01BB  3A00               	xorlw	0	; case 0
  2816  01BC  1903               	skipnz
  2817  01BD  29BF               	goto	i1l1944
  2818  01BE  29F7               	goto	i1l153
  2819  01BF                     i1l1944:
  2820                           
  2821                           ; Switch size 1, requested type "simple"
  2822                           ; Number of cases is 18, Range of values is 1 to 18
  2823                           ; switch strategies available:
  2824                           ; Name         Instructions Cycles
  2825                           ; simple_byte           55    28 (average)
  2826                           ; direct_byte           65    11 (fixed)
  2827                           ; jumptable            263     9 (fixed)
  2828                           ;	Chosen strategy is simple_byte
  2829  01BF  0876               	movf	??_envio,w
  2830  01C0  3A01               	xorlw	1	; case 1
  2831  01C1  1903               	skipnz
  2832  01C2  2984               	goto	i1l1380
  2833  01C3  3A03               	xorlw	3	; case 2
  2834  01C4  1903               	skipnz
  2835  01C5  2987               	goto	i1l1382
  2836  01C6  3A01               	xorlw	1	; case 3
  2837  01C7  1903               	skipnz
  2838  01C8  298A               	goto	i1l1384
  2839  01C9  3A07               	xorlw	7	; case 4
  2840  01CA  1903               	skipnz
  2841  01CB  298D               	goto	i1l1386
  2842  01CC  3A01               	xorlw	1	; case 5
  2843  01CD  1903               	skipnz
  2844  01CE  2990               	goto	i1l1388
  2845  01CF  3A03               	xorlw	3	; case 6
  2846  01D0  1903               	skipnz
  2847  01D1  298A               	goto	i1l1384
  2848  01D2  3A01               	xorlw	1	; case 7
  2849  01D3  1903               	skipnz
  2850  01D4  2993               	goto	i1l1392
  2851  01D5  3A0F               	xorlw	15	; case 8
  2852  01D6  1903               	skipnz
  2853  01D7  2996               	goto	i1l1394
  2854  01D8  3A01               	xorlw	1	; case 9
  2855  01D9  1903               	skipnz
  2856  01DA  2999               	goto	i1l1396
  2857  01DB  3A03               	xorlw	3	; case 10
  2858  01DC  1903               	skipnz
  2859  01DD  299C               	goto	i1l1398
  2860  01DE  3A01               	xorlw	1	; case 11
  2861  01DF  1903               	skipnz
  2862  01E0  299F               	goto	i1l1400
  2863  01E1  3A07               	xorlw	7	; case 12
  2864  01E2  1903               	skipnz
  2865  01E3  29A2               	goto	i1l1402
  2866  01E4  3A01               	xorlw	1	; case 13
  2867  01E5  1903               	skipnz
  2868  01E6  29A5               	goto	i1l1404
  2869  01E7  3A03               	xorlw	3	; case 14
  2870  01E8  1903               	skipnz
  2871  01E9  29A8               	goto	i1l1406
  2872  01EA  3A01               	xorlw	1	; case 15
  2873  01EB  1903               	skipnz
  2874  01EC  29A2               	goto	i1l1402
  2875  01ED  3A1F               	xorlw	31	; case 16
  2876  01EE  1903               	skipnz
  2877  01EF  29AB               	goto	i1l1410
  2878  01F0  3A01               	xorlw	1	; case 17
  2879  01F1  1903               	skipnz
  2880  01F2  29AE               	goto	i1l1412
  2881  01F3  3A03               	xorlw	3	; case 18
  2882  01F4  1903               	skipnz
  2883  01F5  29B1               	goto	i1l1414
  2884  01F6  29F7               	goto	i1l153
  2885  01F7                     i1l153:
  2886  01F7  0008               	return
  2887  01F8                     __end_of_envio:
  2888  007E                     btemp	set	126	;btemp
  2889  007E                     wtemp0	set	126
  2890                           
  2891                           	psect	config
  2892                           
  2893                           ;Config register CONFIG1 @ 0x2007
  2894                           ;	Oscillator Selection bits
  2895                           ;	FOSC = INTRC_NOCLKOUT, INTOSCIO oscillator: I/O function on RA6/OSC2/CLKOUT pin, I/O f
      +                          unction on RA7/OSC1/CLKIN
  2896                           ;	Watchdog Timer Enable bit
  2897                           ;	WDTE = OFF, WDT disabled and can be enabled by SWDTEN bit of the WDTCON register
  2898                           ;	Power-up Timer Enable bit
  2899                           ;	PWRTE = OFF, PWRT disabled
  2900                           ;	RE3/MCLR pin function select bit
  2901                           ;	MCLRE = OFF, RE3/MCLR pin function is digital input, MCLR internally tied to VDD
  2902                           ;	Code Protection bit
  2903                           ;	CP = OFF, Program memory code protection is disabled
  2904                           ;	Data Code Protection bit
  2905                           ;	CPD = OFF, Data memory code protection is disabled
  2906                           ;	Brown Out Reset Selection bits
  2907                           ;	BOREN = OFF, BOR disabled
  2908                           ;	Internal External Switchover bit
  2909                           ;	IESO = OFF, Internal/External Switchover mode is disabled
  2910                           ;	Fail-Safe Clock Monitor Enabled bit
  2911                           ;	FCMEN = OFF, Fail-Safe Clock Monitor is disabled
  2912                           ;	Low Voltage Programming Enable bit
  2913                           ;	LVP = OFF, RB3 pin has digital I/O, HV on MCLR must be used for programming
  2914                           ;	In-Circuit Debugger Mode bit
  2915                           ;	DEBUG = 0x1, unprogrammed default
  2916  2007                     	org	8199
  2917  2007  20D4               	dw	8404
  2918                           
  2919                           ;Config register CONFIG2 @ 0x2008
  2920                           ;	Brown-out Reset Selection bit
  2921                           ;	BOR4V = BOR40V, Brown-out Reset set to 4.0V
  2922                           ;	Flash Program Memory Self Write Enable bits
  2923                           ;	WRT = OFF, Write protection off
  2924  2008                     	org	8200
  2925  2008  3FFF               	dw	16383

Data Sizes:
    Strings     0
    Constant    0
    Data        0
    BSS         23
    Persistent  0
    Stack       0

Auto Spaces:
    Space          Size  Autos    Used
    COMMON           14      6      12
    BANK0            80     25      42
    BANK1            80      0       0
    BANK3            96      0       0
    BANK2            96      0       0

Pointer List with Targets:

    None.

Critical Paths under _main in COMMON

    None.

Critical Paths under _ISR in COMMON

    _ISR->_envio

Critical Paths under _main in BANK0

    _recibir_tiempo->_I2C_Master_Read
    _convertirBCD->_num_ascii
    _Setup->_I2C_Master_Init
    _I2C_Master_Init->___lldiv

Critical Paths under _ISR in BANK0

    None.

Critical Paths under _main in BANK1

    None.

Critical Paths under _ISR in BANK1

    None.

Critical Paths under _main in BANK3

    None.

Critical Paths under _ISR in BANK3

    None.

Critical Paths under _main in BANK2

    None.

Critical Paths under _ISR in BANK2

    None.

Call Graph Tables:

 ---------------------------------------------------------------------------------
 (Depth) Function   	        Calls       Base Space   Used Autos Params    Refs
 ---------------------------------------------------------------------------------
 (0) _main                                                 3     3      0    2410
                                             22 BANK0      3     3      0
                              _Setup
                          _USARTconf
                       _convertirBCD
                            _initOsc
                     _recibir_tiempo
 ---------------------------------------------------------------------------------
 (1) _recibir_tiempo                                       0     0      0    1806
                    _I2C_Master_Read
                   _I2C_Master_Start
                    _I2C_Master_Stop
                   _I2C_Master_Write
 ---------------------------------------------------------------------------------
 (2) _I2C_Master_Write                                     2     0      2    1111
                                              0 BANK0      2     0      2
                    _I2C_Master_Wait
 ---------------------------------------------------------------------------------
 (2) _I2C_Master_Stop                                      0     0      0       0
                    _I2C_Master_Wait
 ---------------------------------------------------------------------------------
 (2) _I2C_Master_Start                                     0     0      0       0
                    _I2C_Master_Wait
 ---------------------------------------------------------------------------------
 (2) _I2C_Master_Read                                      6     4      2     695
                                              0 BANK0      6     4      2
                    _I2C_Master_Wait
 ---------------------------------------------------------------------------------
 (3) _I2C_Master_Wait                                      0     0      0       0
 ---------------------------------------------------------------------------------
 (1) _initOsc                                              3     3      0      31
                                              0 BANK0      3     3      0
 ---------------------------------------------------------------------------------
 (1) _convertirBCD                                         1     1      0      31
                                              3 BANK0      1     1      0
                          _num_ascii
 ---------------------------------------------------------------------------------
 (2) _num_ascii                                            3     3      0      31
                                              0 BANK0      3     3      0
 ---------------------------------------------------------------------------------
 (1) _USARTconf                                            0     0      0       0
 ---------------------------------------------------------------------------------
 (1) _Setup                                                0     0      0     542
                    _I2C_Master_Init
 ---------------------------------------------------------------------------------
 (2) _I2C_Master_Init                                      8     4      4     542
                                             14 BANK0      8     4      4
                            ___lldiv
 ---------------------------------------------------------------------------------
 (3) ___lldiv                                             14     6      8     421
                                              0 BANK0     14     6      8
 ---------------------------------------------------------------------------------
 Estimated maximum stack depth 3
 ---------------------------------------------------------------------------------
 (Depth) Function   	        Calls       Base Space   Used Autos Params    Refs
 ---------------------------------------------------------------------------------
 (4) _ISR                                                  4     4      0       0
                                              2 COMMON     4     4      0
                              _envio
 ---------------------------------------------------------------------------------
 (5) _envio                                                2     2      0       0
                                              0 COMMON     2     2      0
 ---------------------------------------------------------------------------------
 Estimated maximum stack depth 5
 ---------------------------------------------------------------------------------

 Call Graph Graphs:

 _main (ROOT)
   _Setup
     _I2C_Master_Init
       ___lldiv
   _USARTconf
   _convertirBCD
     _num_ascii
   _initOsc
   _recibir_tiempo
     _I2C_Master_Read
       _I2C_Master_Wait
     _I2C_Master_Start
       _I2C_Master_Wait
     _I2C_Master_Stop
       _I2C_Master_Wait
     _I2C_Master_Write
       _I2C_Master_Wait

 _ISR (ROOT)
   _envio

 Address spaces:
Name               Size   Autos  Total    Cost      Usage
BITCOMMON            E      0       0       0        0.0%
EEDATA             100      0       0       0        0.0%
NULL                 0      0       0       0        0.0%
CODE                 0      0       0       0        0.0%
COMMON               E      6       C       1       85.7%
BITSFR0              0      0       0       1        0.0%
SFR0                 0      0       0       1        0.0%
BITSFR1              0      0       0       2        0.0%
SFR1                 0      0       0       2        0.0%
STACK                0      0       0       2        0.0%
ABS                  0      0      36       3        0.0%
BITBANK0            50      0       0       4        0.0%
BITSFR3              0      0       0       4        0.0%
SFR3                 0      0       0       4        0.0%
BANK0               50     19      2A       5       52.5%
BITSFR2              0      0       0       5        0.0%
SFR2                 0      0       0       5        0.0%
BITBANK1            50      0       0       6        0.0%
BANK1               50      0       0       7        0.0%
BITBANK3            60      0       0       8        0.0%
BANK3               60      0       0       9        0.0%
BITBANK2            60      0       0      10        0.0%
BANK2               60      0       0      11        0.0%
DATA                 0      0      36      12        0.0%


Microchip Technology PIC Macro Assembler V2.20 build 20200408173844 
Symbol Table                                                                                   Wed Mar 03 01:49:12 2021

                       fsr 0004                        l200 041F                        l121 03F2  
                      l130 00E8                        l203 038B                        l204 038E  
                      l205 0395                        l214 039A                        l215 03C5  
                      l127 0182                        l232 0408                        l216 03A0  
                      l217 03A6                        l218 03AC                        l219 03C6  
                      l237 0329                        l182 0363                        l191 0431  
                      l185 0409                        l370 025F                        l188 0415  
                      l197 0428                        _GIE 005F                        u500 0415  
                      u501 0414                        u510 020A                        u511 0209  
                      u530 021E                        u531 021D                        _ISR 0260  
                      u525 020F                        u605 0037                        u550 0239  
                      u551 0238                        u615 0057                        u545 0220  
                      u625 0077                        u570 0257                        u490 040F  
                      u571 0256                        u555 0235                        u635 0097  
                      u491 040E                        u580 0341                        u660 02D3  
                      u565 0249                        u645 00B7                        u661 02D2  
                      u590 0387                        u670 02DF                        u655 00D7  
                      u591 0386                        u671 02DE                        u585 033C  
                      u687 02C2                        _dia 0072                        _ano 003E  
                      _mes 0071                        _min 0074                        _seg 0075  
                      _var 0049                        fsr0 0004                        indf 0000  
                     ?_ISR 0076                       l1620 01F8                       l1700 02EF  
                     l1630 021E                       l1622 020A                       l1640 0251  
                     l1632 0227                       l1624 020D                       l1800 03FE  
                     l1712 02F3                       l1616 0409                       l1634 0239  
                     l1626 0216                       l1642 0257                       l1650 0331  
                     l1802 0400                       l1730 02F9                       l1706 02F1  
                     l1618 040F                       l1810 00E9                       l1636 0247  
                     l1628 021A                       l1652 0360                       l1804 0403  
                     l1724 02F7                       l1660 042E                       l1820 0151  
                     l1812 0113                       l1638 0248                       l1654 0361  
                     l1646 032A                       l1806 0404                       l1742 02FD  
                     l1718 02F5                       l1670 0364                       l1662 0416  
                     l1822 0160                       l1814 0124                       l1830 02A5  
                     l1656 0362                       l1648 032E                       l1808 0405  
                     l1736 02FB                       l1680 0387                       l1672 0369  
                     l1664 041B                       l1824 016F                       l1816 0133  
                     l1840 02C9                       l1832 02AB                       l1682 038F  
                     l1674 0371                       l1658 0429                       l1666 0420  
                     l1826 017D                       l1818 0142                       l1850 02DF  
                     l1842 02CE                       l1834 02B0                       l1780 03D4  
                     l1748 02FF                       l1756 0301                       l1828 0028  
                     l1940 03BA                       l1764 0399                       l1676 037A  
                     l1668 0425                       l1852 02E2                       l1844 02D3  
                     l1836 02B5                       l1790 03DF                       l1782 03D8  
                     l1942 0309                       l1686 02EC                       l1678 037F  
                     l1846 02D7                       l1838 02BA                       l1792 03E2  
                     l1784 03D9                       l1776 03C7                       l1688 02ED  
                     l1768 03B2                       l1848 02DA                       l1794 03E3  
                     l1786 03DA                       l1778 03D3                       l1788 03DB  
                     l1796 03F3                       l1798 03FB                       _PEIE 005E  
                     _TMR0 0001                       _diaD 0042                       _diaU 0041  
                     _anoD 003D                       _anoU 003C                       _mesD 0040  
                     _minD 0046                       _main 02A5                       _mesU 003F  
                     _minU 0045                       _segD 0048                       _hora 0073  
                     _segU 0047                       btemp 007E                       start 0012  
            ?_convertirBCD 0076                      ??_ISR 0078           ?_I2C_Master_Init 002E  
         ?_I2C_Master_Read 0020           ?_I2C_Master_Wait 0076           ?_I2C_Master_Stop 0076  
                    ?_main 0076                      _ANSEL 0188            __end_of___lldiv 0260  
                    i1l108 029A                      i1l153 01F7                      _RCREG 001A  
                    u42_20 0265                      u42_21 0264                      _SPBRG 0099  
                    u43_20 0269                      u43_21 0268                      _PORTA 0005  
                    _PORTB 0006                      u44_20 027B                      u44_21 027A  
                    u45_20 028A                      u45_21 0289                      u46_20 0296  
                    u46_21 0295                      _TRISB 0086                      _TRISC 0087  
                    _SSPIE 0463                      _SSPIF 0063                      _TXREG 0019  
                    _Setup 03C7            __end_of_initOsc 03C7                      _horaD 0044  
                    _horaU 0043                      _envio 0183                      pclath 000A  
                    status 0003         __size_of_USARTconf 0016                      wtemp0 007E  
          __initialization 0015             ??_convertirBCD 0023               __end_of_main 02E9  
                   ??_main 0036          ?_I2C_Master_Start 0076          ?_I2C_Master_Write 0020  
                   ?_Setup 0076         ??_I2C_Master_Start 0020         ??_I2C_Master_Write 0022  
                   ?_envio 0076                     _ANSELH 0189                     i1l1400 019F  
                   i1l1410 01AB                     i1l1402 01A2                     i1l1412 01AE  
                   i1l1404 01A5                     i1l1420 01B5                     i1l1500 028D  
                   i1l1414 01B1                     i1l1406 01A8                     i1l1502 0290  
                   i1l1416 01B3                     i1l1504 0296                     i1l1380 0184  
                   i1l1382 0187                     i1l1392 0193                     i1l1384 018A  
                   i1l1480 0265                     i1l1394 0196                     i1l1386 018D  
                   i1l1378 0183                     i1l1490 027B                     i1l1482 0269  
                   i1l1396 0199                     i1l1388 0190                     i1l1492 027C  
                   i1l1484 026C                     i1l1398 019C                     i1l1494 0280  
                   i1l1486 0272                     i1l1478 0260                     i1l1496 0284  
                   i1l1488 0277                     i1l1498 028A                     i1l1944 01BF  
              initOsc@frec 0022                     _SPBRGH 009A                     _SSPADD 0093  
                   _TRISC3 043B                     _TRISC4 043C                     _SSPCON 0014  
                   _SSPBUF 0013                     _basura 003B                  ??___lldiv 0028  
        __end_of_USARTconf 0409                  ??_initOsc 0020                     saved_w 007E  
         ??_recibir_tiempo 0026    __end_of__initialization 0024             __pcstackCOMMON 0076  
            __end_of_Setup 03F3              __end_of_envio 01F8                    ??_Setup 0036  
     __end_of_convertirBCD 00E9                    ??_envio 0076                 __pbssBANK0 0039  
               __pmaintext 02A5                 __pintentry 0004         __size_of_num_ascii 0041  
                  _SSPCON2 0091                    _SSPSTAT 0094                    ___lldiv 01F8  
                  __ptext1 00E9                    __ptext2 0416                    __ptext3 0420  
                  __ptext4 0429                    __ptext5 0364                    __ptext6 0409  
                  __ptext7 0396                    __ptext8 0028                    __ptext9 02E9  
             __size_of_ISR 0045                    _initOsc 0396   __size_of_I2C_Master_Init 003A  
 __size_of_I2C_Master_Read 0032   __size_of_I2C_Master_Wait 000D   __size_of_I2C_Master_Stop 0009  
                  clrloop0 0433       end_of_initialization 0024          __end_of_num_ascii 032A  
__size_of_I2C_Master_Start 0009  __size_of_I2C_Master_Write 000A            ___lldiv@divisor 0020  
          ___lldiv@counter 002D                  _RCSTAbits 0018           I2C_Master_Init@c 002E  
         I2C_Master_Read@a 0020      __size_of_convertirBCD 00C1                  _TRISCbits 0087  
                _USARTconf 03F3                  _TXSTAbits 0098               _convertirBCD 0028  
              _BAUDCTLbits 0187        start_initialization 0015                __end_of_ISR 02A5  
               ?_USARTconf 0076          ??_I2C_Master_Init 0032          ??_I2C_Master_Read 0022  
        ??_I2C_Master_Wait 0020          ??_I2C_Master_Stop 0020                __pbssCOMMON 0070  
                ___latbits 0002              __pcstackBANK0 0020           _I2C_Master_Start 0429  
         _I2C_Master_Write 0416    __size_of_recibir_tiempo 009A                   ?___lldiv 0020  
                 ?_initOsc 0076                ??_USARTconf 0020             __size_of_Setup 002C  
           __size_of_envio 0075          interrupt_function 0004                  clear_ram0 0432  
                 _PIE1bits 008C                   _PIR1bits 000C                  _num_ascii 02E9  
                 _DecenasH 003A        I2C_Master_Read@temp 0024                 ?_num_ascii 0076  
         __size_of___lldiv 0068            _I2C_Master_Init 032A            _I2C_Master_Read 0364  
          _I2C_Master_Wait 0409            _I2C_Master_Stop 0420           __size_of_initOsc 0031  
                 _dato_esp 0070                   __ptext10 03F3                   __ptext11 03C7  
                 __ptext12 032A                   __ptext13 01F8                   __ptext14 0260  
                 __ptext15 0183              __size_of_main 0044             _recibir_tiempo 00E9  
                 _toggleTX 0039   __end_of_I2C_Master_Start 0432   __end_of_I2C_Master_Write 0420  
               _INTCONbits 000B                   intlevel1 0000           ___lldiv@dividend 0024  
             num_ascii@num 0022     __end_of_recibir_tiempo 0183                 _OSCCONbits 008F  
              ??_num_ascii 0020    __end_of_I2C_Master_Init 0364    __end_of_I2C_Master_Read 0396  
  __end_of_I2C_Master_Wait 0416    __end_of_I2C_Master_Stop 0429                 _OPTION_REG 0081  
         ___lldiv@quotient 0029          I2C_Master_Write@d 0020                _SSPCON2bits 0091  
          ?_recibir_tiempo 0076  
